ccopy_reg
_reconstructor
p1
(ctensorflow.contrib.learn.python.learn.preprocessing.text
VocabularyProcessor
p2
c__builtin__
object
p3
NtRp4
(dp5
S'vocabulary_'
p6
g1
(ctensorflow.contrib.learn.python.learn.preprocessing.categorical_vocabulary
CategoricalVocabulary
p7
g3
NtRp8
(dp9
S'_freeze'
p10
I01
sS'_unknown_token'
p11
S'<UNK>'
p12
sS'_support_reverse'
p13
I01
sS'_freq'
p14
ccollections
defaultdict
p15
(c__builtin__
int
p16
tRp17
S'inning'
p18
I8
sS'giorgio'
p19
I2
sS'yellow'
p20
I2
sS'debentures'
p21
I2
sS'four'
p22
I28
sS'down-payment'
p23
I8
sS'protest'
p24
I2
sS'asian'
p25
I6
sS'controversial'
p26
I2
sS'claiming'
p27
I2
sS'consists'
p28
I2
sS'webster'
p29
I4
sS'marching'
p30
I2
sS'looking'
p31
I6
sS'votes'
p32
I2
sS'revoking'
p33
I2
sS'calculate'
p34
I2
sS'aug'
p35
I12
sS'paris'
p36
I6
sS'segments'
p37
I2
sS'mediation'
p38
I4
sS'edward'
p39
I2
sS'swap'
p40
I2
sS'under'
p41
I60
sS'worth'
p42
I6
sS'plants'
p43
I4
sS'exempt'
p44
I2
sS'risk'
p45
I6
sS'point-pepperell'
p46
I4
sS'regional'
p47
I6
sS'non-interest'
p48
I8
sS'risc'
p49
I2
sS'sellers'
p50
I8
sS'free-fall'
p51
I2
sS'every'
p52
I14
sS'jack'
p53
I2
sS'softened'
p54
I2
sS'affect'
p55
I2
sS'bringing'
p56
I4
sS'vast'
p57
I4
sS'school'
p58
I2
sS'specify'
p59
I2
sS'assembly'
p60
I2
sS'facilities'
p61
I8
sS'crops'
p62
I4
sS'calif'
p63
I4
sS'companies'
p64
I38
sS'wednesday'
p65
I2
sS'indefinitely'
p66
I2
sS'21-9'
p67
I4
sS'296'
p68
I2
sS'employees'
p69
I18
sS'triumph'
p70
I2
sS'clothes'
p71
I6
sS'bill'
p72
I38
sS'cher'
p73
I2
sS'leaders'
p74
I6
sS'appropriations'
p75
I6
sS'consistent'
p76
I2
sS'fairness'
p77
I4
sS'estimates'
p78
I4
sS'direct'
p79
I2
sS'bashers'
p80
I4
sS'likely'
p81
I18
sS'street'
p82
I50
sS'borrowings'
p83
I2
sS'279'
p84
I2
sS'estimated'
p85
I12
sS'machines'
p86
I2
sS'barney'
p87
I2
sS'even'
p88
I32
sS'established'
p89
I6
sS'disk'
p90
I4
sS'tissue'
p91
I4
sS'house-senate'
p92
I2
sS'photofinishing'
p93
I2
sS'exactly'
p94
I2
sS'selected'
p95
I6
sS'contributed'
p96
I6
sS'asia'
p97
I2
sS'journalist'
p98
I6
sS'spokesman'
p99
I26
sS'bonuses'
p100
I4
sS'mischievous'
p101
I2
sS'above'
p102
I6
sS'endorse'
p103
I2
sS'supplier'
p104
I8
sS'new'
p105
I192
sS'net'
p106
I68
sS'increasing'
p107
I4
sS'ever'
p108
I18
sS'consisting'
p109
I2
sS'seeks'
p110
I2
sS'told'
p111
I8
sS'crunch'
p112
I2
sS'deemed'
p113
I2
sS'kicked'
p114
I8
sS'barometer'
p115
I4
sS'whose'
p116
I8
sS'incentives'
p117
I6
sS'never'
p118
I10
sS'disposable'
p119
I2
sS'equals'
p120
I2
sS'here'
p121
I26
sS'bangkok'
p122
I2
sS'reported'
p123
I28
sS'108'
p124
I2
sS'109'
p125
I2
sS'china'
p126
I2
sS'active'
p127
I12
sS'aftermath'
p128
I2
sS'100'
p129
I52
sS'101'
p130
I10
sS'besieged'
p131
I6
sS'enron'
p132
I4
sS'substance'
p133
I4
sS'wait-and-see'
p134
I2
sS'auction'
p135
I10
sS'items'
p136
I4
sS'k'
I12
sS'changed'
p137
I6
sS'house'
p138
I12
sS'reports'
p139
I2
sS'ignoring'
p140
I2
sS'femina'
p141
I6
sS'taped'
p142
I2
sS'depreciated'
p143
I2
sS'payoffs'
p144
I2
sS'analysts'
p145
I18
sS'permit'
p146
I2
sS'unwanted'
p147
I2
sS'engineers'
p148
I2
sS'head'
p149
I14
sS'cancellation'
p150
I4
sS'drg'
p151
I2
sS'criticism'
p152
I2
sS'golden'
p153
I2
sS'prints'
p154
I6
sS'projection'
p155
I2
sS'campaign'
p156
I26
sS'best-of-seven'
p157
I2
sS'explained'
p158
I2
sS'treatment'
p159
I2
sS'highly'
p160
I6
sS'psychological'
p161
I4
sS'visible'
p162
I2
sS'pound'
p163
I12
sS'turning'
p164
I2
sS'thursday'
p165
I14
sS'soybean'
p166
I4
sS'pyongyang'
p167
I2
sS'total'
p168
I16
sS'la-la'
p169
I4
sS'unit'
p170
I40
sS'hoping'
p171
I2
sS'cara'
p172
I4
sS'on-broadway'
p173
I2
sS'would'
p174
I164
sS'liftoff'
p175
I6
sS'pulling'
p176
I2
sS'achieve'
p177
I6
sS'ploy'
p178
I2
sS'forklifts'
p179
I2
sS'insult'
p180
I2
sS'discrepancies'
p181
I2
sS'347'
p182
I2
sS'call'
p183
I8
sS'calm'
p184
I8
sS'passport'
p185
I4
sS'unfortunately'
p186
I4
sS'strike'
p187
I12
sS'until'
p188
I24
sS'voted'
p189
I10
sS'promises'
p190
I2
sS'main'
p191
I4
sS'supporters'
p192
I2
sS'composite'
p193
I6
sS'conclusions'
p194
I2
sS'greenhouse-effect'
p195
I4
sS'carriers'
p196
I2
sS'award'
p197
I2
sS'hurt'
p198
I2
sS'99'
p199
I8
sS'ambition'
p200
I4
sS'manages'
p201
I2
sS'200-point'
p202
I2
sS'inter-bank'
p203
I2
sS'90'
p204
I10
sS'92'
p205
I2
sS'95'
p206
I8
sS'94'
p207
I2
sS'tampa'
p208
I2
sS'must'
p209
I18
sS'me'
p210
I10
sS'1990'
p211
I12
sS'1992'
p212
I6
sS'word'
p213
I4
sS'room'
p214
I12
sS'rights'
p215
I4
sS'9-8'
p216
I2
sS'mo'
p217
I2
sS'work'
p218
I24
sS'plunged'
p219
I10
sS'candlestick'
p220
I2
sS'58-point'
p221
I6
sS'obstacle'
p222
I8
sS'era'
p223
I2
sS'ms'
p224
I4
sS'mr'
p225
I124
sS'ernest'
p226
I4
sS'revenues'
p227
I4
sS'root'
p228
I2
sS'example'
p229
I10
sS'gloria'
p230
I2
sS'estate'
p231
I4
sS'give'
p232
I14
sS'cooling-off'
p233
I2
sS'organized'
p234
I2
sS'sick'
p235
I2
sS'wal-mart'
p236
I2
sS'indicates'
p237
I6
sS'ual'
p238
I24
sS'want'
p239
I18
sS'drive'
p240
I4
sS'keep'
p241
I16
sS'skipper'
p242
I6
sS'totaled'
p243
I6
sS'guarantee'
p244
I6
sS'end'
p245
I26
sS'recovery'
p246
I2
sS'turn'
p247
I16
sS'provide'
p248
I14
sS'reconciliation'
p249
I6
sS'travel'
p250
I2
sS'drying'
p251
I4
sS'damage'
p252
I6
sS'underwriters'
p253
I2
sS'very'
p254
I28
sS'hot'
p255
I4
sS'communist'
p256
I2
sS'laidlaw'
p257
I2
sS'disappear'
p258
I2
sS'significance'
p259
I2
sS'interview'
p260
I4
sS'ordinary'
p261
I4
sS'preparing'
p262
I2
sS'traded'
p263
I6
sS'gamble'
p264
I6
sS'tendering'
p265
I2
sS'badly'
p266
I2
sS'fever'
p267
I2
sS'minority'
p268
I2
sS'perkinelmer'
p269
I2
sS'replacing'
p270
I2
sS'francis'
p271
I2
sS'after'
p272
I126
sS'hong'
p273
I16
sS'bottom-down'
p274
I2
sS'hence'
p275
I2
sS'wrong'
p276
I10
sS'raiders'
p277
I2
sS'president'
p278
I22
sS'strategists'
p279
I2
sS'law'
p280
I18
sS'types'
p281
I2
sS'purchase'
p282
I24
sS'persuasiveness'
p283
I4
sS'attempt'
p284
I2
sS'effective'
p285
I14
sS'wins'
p286
I4
sS'acknowledged'
p287
I2
sS'discontinued'
p288
I2
sS'supermarkets'
p289
I2
sS'perform'
p290
I4
sS'maintain'
p291
I8
sS'green'
p292
I16
sS'ultimate'
p293
I4
sS'fourth-biggest'
p294
I6
sS'enter'
p295
I4
sS'plumbing'
p296
I4
sS'fan'
p297
I4
sS'operate'
p298
I4
sS'order'
p299
I14
sS'destructive'
p300
I4
sS'wine'
p301
I4
sS'operations'
p302
I28
sS'office'
p303
I10
sS'over'
p304
I76
sS'bleach'
p305
I2
sS'vary'
p306
I4
sS'expects'
p307
I10
sS'billion-a-year'
p308
I2
sS'london'
p309
I46
sS'innovative'
p310
I2
sS'japan'
p311
I10
sS'fidelity'
p312
I20
sS'partisans'
p313
I2
sS'mayor'
p314
I6
sS'before'
p315
I46
sS'scoring'
p316
I4
sS'californians'
p317
I2
sS'somewhere'
p318
I4
sS'fleeing'
p319
I2
sS'84'
p320
I2
sS'expectations'
p321
I8
sS'denver'
p322
I6
sS'writing'
p323
I4
sS'better'
p324
I30
sS'trizec'
p325
I4
sS'production'
p326
I16
sS'400'
p327
I10
sS'weeks'
p328
I12
sS'admirable'
p329
I2
sS'easier'
p330
I2
sS'overcome'
p331
I4
sS'then'
p332
I88
sS'them'
p333
I42
sS'affected'
p334
I16
sS'woken'
p335
I4
sS'combination'
p336
I4
sS'lambert'
p337
I2
sS'similar'
p338
I6
sS'safe'
p339
I2
sS'zoning'
p340
I2
sS'finish'
p341
I8
sS'band'
p342
I2
sS'greenhouse'
p343
I2
sS'effects'
p344
I4
sS'they'
p345
I146
sS'45-a-share'
p346
I2
sS'merchandisers'
p347
I2
sS'altogether'
p348
I2
sS'rental'
p349
I6
sS'silver'
p350
I6
sS'bank'
p351
I12
sS'pits'
p352
I2
sS'represents'
p353
I8
sS'30-year'
p354
I4
sS'sidelines'
p355
I2
sS'rocky'
p356
I2
sS'notified'
p357
I4
sS'reasonably'
p358
I2
sS'debut'
p359
I2
sS'arrested'
p360
I6
sS'l'
I10
sS'arrow'
p361
I34
sS'fitness'
p362
I2
sS'371'
p363
I4
sS'went'
p364
I42
sS'375'
p365
I2
sS'side'
p366
I16
sS'mean'
p367
I2
sS'interruption'
p368
I2
sS'financial'
p369
I26
sS'directly'
p370
I12
sS'fairly'
p371
I2
sS'series'
p372
I32
sS'relocations'
p373
I2
sS'january'
p374
I10
sS'joined'
p375
I4
sS'393'
p376
I2
sS'carry'
p377
I2
sS'milan'
p378
I2
sS'trading'
p379
I178
sS'afield'
p380
I4
sS'substantially'
p381
I2
sS'lawyers'
p382
I2
sS'saturday'
p383
I4
sS'whip'
p384
I2
sS'contend'
p385
I2
sS'balanced-budget'
p386
I6
sS'overcame'
p387
I2
sS'weakness'
p388
I4
sS'beefing'
p389
I2
sS'tried'
p390
I2
sS'cameras'
p391
I2
sS'crucial'
p392
I6
sS'two-hour'
p393
I2
sS'george'
p394
I2
sS'human-rights'
p395
I2
sS'medicine'
p396
I4
sS'got'
p397
I10
sS'newly'
p398
I2
sS'judith'
p399
I2
sS'sliding'
p400
I2
sS'arizona'
p401
I2
sS'disputed'
p402
I2
sS'reuschel'
p403
I4
sS'associate'
p404
I2
sS'anti-recession'
p405
I2
sS'given'
p406
I4
sS'free'
p407
I14
sS'standard'
p408
I12
sS'245'
p409
I6
sS'941-105'
p410
I2
sS'shopkorn'
p411
I2
sS'allocation'
p412
I4
sS'240'
p413
I4
sS'enhance'
p414
I2
sS'estimate'
p415
I4
sS'wanted'
p416
I8
sS'chlorine'
p417
I4
sS'personalities'
p418
I2
sS'baseman'
p419
I4
sS'poles'
p420
I6
sS'spurned'
p421
I2
sS'recovering'
p422
I4
sS'created'
p423
I20
sS'starts'
p424
I2
sS'fetal'
p425
I2
sS'messages'
p426
I4
sS'days'
p427
I10
sS'pence'
p428
I6
sS'flawless'
p429
I4
sS'isi'
p430
I8
sS'000'
p431
I42
sS'speedy'
p432
I4
sS'290'
p433
I2
sS'tied'
p434
I4
sS'leaps'
p435
I2
sS'onto'
p436
I2
sS'stewart'
p437
I4
sS'already'
p438
I24
sS'nigel'
p439
I2
sS'features'
p440
I10
sS'economists'
p441
I8
sS'encouraging'
p442
I8
sS'executions'
p443
I2
sS'restrict'
p444
I2
sS'floors'
p445
I4
sS'deplete'
p446
I2
sS'downside'
p447
I2
sS'another'
p448
I28
sS'178'
p449
I2
sS'fmha'
p450
I8
sS'sharpest'
p451
I2
sS'42'
p452
I4
sS'feeding'
p453
I2
sS'agriculture'
p454
I2
sS'3200'
p455
I4
sS'service'
p456
I10
sS'similarly'
p457
I14
sS'griffith-joyner'
p458
I2
sS'faced'
p459
I2
sS'top'
p460
I12
sS'takeovers'
p461
I4
sS'amsterdam'
p462
I2
sS'twisted'
p463
I2
sS'blamed'
p464
I2
sS'regatta'
p465
I14
sS'needed'
p466
I8
sS'rates'
p467
I16
sS'too'
p468
I22
sS'upshot'
p469
I2
sS'percentage'
p470
I10
sS'john'
p471
I10
sS'ranging'
p472
I2
sS'damaging'
p473
I2
sS'labels'
p474
I2
sS'urban'
p475
I4
sS'190-point'
p476
I4
sS'sighing'
p477
I2
sS'collapse'
p478
I10
sS'pushes'
p479
I2
sS'restated'
p480
I2
sS'weather'
p481
I6
sS'diversified'
p482
I4
sS'took'
p483
I26
sS'rejected'
p484
I8
sS'japanese'
p485
I4
sS'aquitaine'
p486
I2
sS'western'
p487
I2
sS'somewhat'
p488
I4
sS'sizable'
p489
I2
sS'kept'
p490
I6
sS'eastman'
p491
I2
sS'205'
p492
I2
sS'nahb'
p493
I16
sS'toronto'
p494
I10
sS'distance'
p495
I2
sS'target'
p496
I8
sS'showed'
p497
I10
sS'citibank'
p498
I2
sS'kosar'
p499
I4
sS'second'
p500
I28
sS'225'
p501
I8
sS'nations'
p502
I2
sS'project'
p503
I2
sS'matter'
p504
I4
sS'merck'
p505
I8
sS'profitable'
p506
I2
sS'contribution'
p507
I2
sS'contrasted'
p508
I2
sS'minus'
p509
I6
sS'hingorani'
p510
I2
sS'bridge'
p511
I2
sS'fashion'
p512
I2
sS'sees'
p513
I2
sS'entail'
p514
I2
sS'minn'
p515
I2
sS'ran'
p516
I4
sS'boston'
p517
I4
sS'modern'
p518
I4
sS'mine'
p519
I2
sS'anybody'
p520
I2
sS'14'
p521
I14
sS'shell'
p522
I4
sS'advising'
p523
I4
sS'lunchtime'
p524
I8
sS'easy-to-film'
p525
I4
sS'seen'
p526
I8
sS'sounding'
p527
I2
sS'tells'
p528
I2
sS'lbo'
p529
I6
sS'relatively'
p530
I12
sS'forced'
p531
I4
sS'strength'
p532
I12
sS'reassuring'
p533
I4
sS'1969'
p534
I4
sS'latter'
p535
I2
sS'responsible'
p536
I4
sS'isolated'
p537
I4
sS'indexes'
p538
I6
sS'localities'
p539
I2
sS'absorbed'
p540
I2
sS'lumpur'
p541
I2
sS'forces'
p542
I6
sS'responsibly'
p543
I2
sS'layoffs'
p544
I2
sS'greenback'
p545
I4
sS'blue'
p546
I52
sS'gravy'
p547
I4
sS'nobody'
p548
I2
sS'panama'
p549
I2
sS'transactions'
p550
I4
sS'bruce'
p551
I4
sS'reincorporating'
p552
I2
sS'sue'
p553
I6
sS'swiss'
p554
I2
sS'bsn'
p555
I20
sS'involving'
p556
I2
sS'germany'
p557
I12
sS'ensure'
p558
I4
sS'letter'
p559
I6
sS'organization'
p560
I12
sS'phase'
p561
I6
sS'burnham'
p562
I2
sS'parting'
p563
I2
sS'zealand'
p564
I4
sS'reimbursement'
p565
I2
sS'africa'
p566
I8
sS'antitrust'
p567
I4
sS'elections'
p568
I10
sS'suffering'
p569
I2
sS'devastating'
p570
I2
sS'm'
I36
sS'treaty'
p571
I2
sS'-based'
p572
I10
sS'orderly'
p573
I10
sS'reputation'
p574
I4
sS'principle'
p575
I2
sS'left'
p576
I14
sS'consumer'
p577
I4
sS'dow'
p578
I64
sS'came'
p579
I24
sS'reserve'
p580
I18
sS'saying'
p581
I4
sS'224'
p582
I8
sS'marveled'
p583
I2
sS'reductions'
p584
I2
sS'whirpool'
p585
I2
sS'probe'
p586
I4
sS'ending'
p587
I6
sS'times-stock'
p588
I4
sS'colors'
p589
I6
sS'showing'
p590
I2
sS'radio'
p591
I6
sS'wrung'
p592
I2
sS'heckled'
p593
I4
sS'bail'
p594
I2
sS'availability'
p595
I6
sS'lessons'
p596
I2
sS'chaos'
p597
I2
sS'judges'
p598
I4
sS'finally'
p599
I2
sS'proposed'
p600
I8
sS'became'
p601
I6
sS'headline'
p602
I6
sS'surged'
p603
I8
sS'delays'
p604
I2
sS'sugar'
p605
I6
sS'rico'
p606
I2
sS'bush'
p607
I8
sS'ushikubo'
p608
I2
sS'rick'
p609
I4
sS'folks'
p610
I2
sS'adequate'
p611
I4
sS'photographers'
p612
I8
sS'septuagenarian'
p613
I2
sS'rica'
p614
I2
sS'wearing'
p615
I2
sS'plate'
p616
I4
sS'exports'
p617
I2
sS'professionals'
p618
I6
sS'commodity'
p619
I4
sS'dd'
p620
I4
sS'de'
p621
I12
sS'stop'
p622
I2
sS'13'
p623
I26
sS'preferred'
p624
I12
sS'coast'
p625
I4
sS'criticized'
p626
I6
sS'shutting'
p627
I2
sS'trades'
p628
I2
sS'covered'
p629
I2
sS'reversal'
p630
I4
sS'despite'
p631
I8
sS'report'
p632
I16
sS'dahlen'
p633
I2
sS'dr'
p634
I6
sS'comply'
p635
I4
sS'volatility'
p636
I12
sS'bat'
p637
I4
sS'jaguar'
p638
I10
sS'greens'
p639
I4
sS'countries'
p640
I6
sS'nicely'
p641
I2
sS'bluefield'
p642
I8
sS'high-yield'
p643
I6
sS'bay'
p644
I4
sS'414'
p645
I2
sS'depressed'
p646
I2
sS'bad'
p647
I10
sS'three-year'
p648
I4
sS'disney'
p649
I6
sS'shots'
p650
I2
sS'165-member'
p651
I2
sS'release'
p652
I4
sS'1385'
p653
I4
sS'prudential-bache'
p654
I8
sS'automatic'
p655
I2
sS'mergers'
p656
I2
sS'secretary'
p657
I8
sS'respond'
p658
I2
sS'corrections'
p659
I4
sS'decides'
p660
I2
sS'victim'
p661
I2
sS'fair'
p662
I8
sS'habit'
p663
I4
sS'liquor'
p664
I2
sS'testing'
p665
I2
sS'fueling'
p666
I2
sS'unexpectedly'
p667
I2
sS'decided'
p668
I8
sS'projections'
p669
I8
sS'synchronize'
p670
I2
sS'discussions'
p671
I2
sS'simultaneously'
p672
I4
sS'resigned'
p673
I2
sS'vented'
p674
I2
sS'best'
p675
I10
sS'subject'
p676
I4
sS'pete'
p677
I6
sS'03'
p678
I4
sS'said'
p679
I210
sS'capacity'
p680
I6
sS'05'
p681
I6
sS'lots'
p682
I4
sS'pasted'
p683
I2
sS'away'
p684
I8
sS'afloat'
p685
I4
sS'calamity'
p686
I4
sS'plummeting'
p687
I2
sS'machinists'
p688
I6
sS'unable'
p689
I2
sS'367'
p690
I2
sS'approach'
p691
I4
sS'361'
p692
I2
sS'preserve'
p693
I4
sS'letting'
p694
I2
sS'we'
p695
I126
sS'men'
p696
I6
sS'terms'
p697
I14
sS'extend'
p698
I6
sS'wo'
p699
I14
sS'ask'
p700
I4
sS'downgrades'
p701
I2
sS'handful'
p702
I8
sS'steady'
p703
I2
sS'however'
p704
I72
sS'boss'
p705
I2
sS'self-congratulatory'
p706
I2
sS'southeast'
p707
I2
sS'retirement'
p708
I2
sS'drew'
p709
I2
sS'extent'
p710
I6
sS'news'
p711
I6
sS'debt'
p712
I30
sS'co-hero'
p713
I2
sS'roller'
p714
I2
sS'suggested'
p715
I8
sS'received'
p716
I4
sS'protect'
p717
I4
sS'accused'
p718
I2
sS'sacrificing'
p719
I2
sS'bellwether'
p720
I2
sS'ill'
p721
I2
sS'uncertainty'
p722
I2
sS'strange'
p723
I4
sS'against'
p724
I26
sS'players'
p725
I8
sS'protection'
p726
I2
sS'games'
p727
I18
sS'mildly'
p728
I2
sS'receives'
p729
I2
sS'studio'
p730
I2
sS'requests'
p731
I4
sS'expense'
p732
I4
sS'ba-3'
p733
I2
sS'asked'
p734
I6
sS'suggest'
p735
I2
sS'year-end'
p736
I2
sS'tough'
p737
I4
sS'goodrich'
p738
I4
sS'sullivan'
p739
I2
sS'legs'
p740
I2
sS'gap'
p741
I4
sS'102'
p742
I2
sS'tons'
p743
I20
sS'initiative'
p744
I46
sS'paused'
p745
I2
sS'103'
p746
I4
sS'tony'
p747
I4
sS'springs'
p748
I4
sS'250'
p749
I28
sS'trust'
p750
I12
sS'telecommunications'
p751
I4
sS'254'
p752
I2
sS'speak'
p753
I4
sS'conference'
p754
I4
sS'investors'
p755
I72
sS'basis'
p756
I2
sS'holdings'
p757
I8
sS'warehouses'
p758
I4
sS'rebounded'
p759
I12
sS'three'
p760
I36
sS'been'
p761
I108
sS'quickly'
p762
I6
sS'spur'
p763
I2
sS'confident'
p764
I4
sS'much'
p765
I52
sS'interest'
p766
I48
sS'basic'
p767
I2
sS'expected'
p768
I40
sS'deliberately'
p769
I4
sS'entered'
p770
I2
sS'correction'
p771
I4
sS'board'
p772
I48
sS'life'
p773
I4
sS'so-called'
p774
I2
sS'fleeting'
p775
I2
sS'housewives'
p776
I4
sS'prison'
p777
I4
sS'worker'
p778
I4
sS'900'
p779
I2
sS'locations'
p780
I2
sS'dave'
p781
I2
sS'168'
p782
I2
sS'169'
p783
I2
sS'child'
p784
I2
sS'catch'
p785
I2
sS'aviation'
p786
I2
sS'worked'
p787
I6
sS'167'
p788
I2
sS'163'
p789
I4
sS'applied'
p790
I26
sS'commerce'
p791
I8
sS'has'
p792
I148
sS'high-school'
p793
I4
sS'intan'
p794
I4
sS'economies'
p795
I2
sS'kentucky'
p796
I4
sS'air'
p797
I16
sS'aim'
p798
I2
sS'abrupt'
p799
I2
sS'teachers'
p800
I2
sS'appeals'
p801
I10
sS'aid'
p802
I4
sS'cuba'
p803
I2
sS'voice'
p804
I2
sS'pertamina'
p805
I2
sS'elaborate'
p806
I4
sS'launched'
p807
I4
sS'della'
p808
I6
sS'seven'
p809
I26
sS'climbed'
p810
I10
sS'olympic'
p811
I2
sS'played'
p812
I4
sS'is'
p813
I430
sS'dumped'
p814
I8
sS'it'
p815
I456
sS'kohl'
p816
I2
sS'expenses'
p817
I4
sS'ii'
p818
I2
sS'player'
p819
I2
sS'straits'
p820
I4
sS'kellogg'
p821
I2
sS'anticipating'
p822
I2
sS'world-wide'
p823
I4
sS'in'
p824
I1240
sS'victims'
p825
I4
sS'conn'
p826
I6
sS'if'
p827
I90
sS'cleo'
p828
I2
sS'overstated'
p829
I2
sS'damaged'
p830
I2
sS'bottles'
p831
I2
sS'credit'
p832
I6
sS'computer-room'
p833
I2
sS'things'
p834
I10
sS'make'
p835
I32
sS'airport'
p836
I2
sS'low-income'
p837
I4
sS'dean'
p838
I6
sS'complex'
p839
I2
sS'potentially'
p840
I4
sS'split'
p841
I4
sS'unfortunate'
p842
I2
sS'advances'
p843
I4
sS'depreciation'
p844
I2
sS'liberal'
p845
I4
sS'several'
p846
I24
sS'couple'
p847
I6
sS'european'
p848
I8
sS'independent'
p849
I4
sS'leftist'
p850
I2
sS'sacramento'
p851
I4
sS'social'
p852
I2
sS'hang'
p853
I2
sS'hand'
p854
I4
sS'cessation'
p855
I2
sS'military'
p856
I4
sS'opportunity'
p857
I4
sS'trucks'
p858
I2
sS'cycle'
p859
I8
sS'shortly'
p860
I16
sS'scenario'
p861
I2
sS'programs'
p862
I16
sS'changes'
p863
I12
sS'1975'
p864
I2
sS'redeem'
p865
I2
sS'ragged'
p866
I2
sS'savings'
p867
I6
sS'practices'
p868
I2
sS'resuming'
p869
I4
sS'greatest'
p870
I2
sS'the'
p871
I3626
sS'smoked'
p872
I4
sS'corporate'
p873
I14
sS'investments'
p874
I6
sS'hurried'
p875
I2
sS'outnumbered'
p876
I4
sS'spurred'
p877
I8
sS'million-share'
p878
I2
sS'just'
p879
I36
sS'yen'
p880
I12
sS'sporting'
p881
I2
sS'distribute'
p882
I4
sS'assigned'
p883
I2
sS'quotes'
p884
I4
sS'financially'
p885
I2
sS'identify'
p886
I6
sS'thanks'
p887
I2
sS'human'
p888
I2
sS'ol'
p889
I2
sS'late-in-the-day'
p890
I2
sS'tightness'
p891
I2
sS'yes'
p892
I2
sS'yet'
p893
I12
sS'impending'
p894
I2
sS'note'
p895
I2
sS'buyers'
p896
I14
sS'candidate'
p897
I2
sS'mix'
p898
I2
sS'photographer'
p899
I2
sS'old-fashioned'
p900
I2
sS'had'
p901
I208
sS'weiss'
p902
I4
sS'macdonald'
p903
I2
sS'wright'
p904
I16
sS'n'
I14
sS'collections'
p905
I2
sS'advanced'
p906
I8
sS'technological'
p907
I2
sS'east'
p908
I6
sS'behind-the-scenes'
p909
I2
sS'gave'
p910
I6
sS'ashore'
p911
I2
sS'yankees-mets'
p912
I2
sS'i860'
p913
I6
sS'posed'
p914
I4
sS'possible'
p915
I16
sS'caps'
p916
I2
sS'possibly'
p917
I4
sS'boxes'
p918
I2
sS'buy-out'
p919
I6
sS'gridlock'
p920
I2
sS'background'
p921
I2
sS'newcastle'
p922
I6
sS'judge'
p923
I12
sS'59'
p924
I6
sS'apart'
p925
I2
sS'designers'
p926
I2
sS'retreat'
p927
I4
sS'58'
p928
I10
sS'desire'
p929
I4
sS'brought'
p930
I8
sS'reunions'
p931
I2
sS'post-world'
p932
I2
sS'appearing'
p933
I4
sS'ditto'
p934
I4
sS'gift'
p935
I4
sS'patience'
p936
I4
sS'55'
p937
I4
sS'54'
p938
I8
sS'57'
p939
I4
sS'56'
p940
I12
sS'51'
p941
I4
sS'50'
p942
I32
sS'53'
p943
I2
sS'52'
p944
I14
sS'specific'
p945
I8
sS'misled'
p946
I2
sS'steps'
p947
I6
sS'officer'
p948
I14
sS'night'
p949
I28
sS'hung'
p950
I2
sS'security'
p951
I6
sS'mcgwire'
p952
I4
sS'turnaround'
p953
I2
sS'signal'
p954
I6
sS'attorney'
p955
I6
sS'right'
p956
I16
sS'old'
p957
I14
sS'deal'
p958
I18
sS'people'
p959
I16
sS'203'
p960
I4
sS'alice'
p961
I4
sS'malaysia'
p962
I6
sS'donald'
p963
I8
sS'36'
p964
I6
sS'jupiter'
p965
I2
sS'election'
p966
I18
sS'triborough'
p967
I2
sS'360-day'
p968
I2
sS'straightening'
p969
I4
sS'indirect'
p970
I2
sS'short-term'
p971
I6
sS'securities'
p972
I50
sS'for'
p973
I628
sS'bottom'
p974
I4
sS'florence'
p975
I2
sS'opposite'
p976
I4
sS'fox'
p977
I4
sS'contributing'
p978
I4
sS'everything'
p979
I4
sS'35133'
p980
I2
sS'continue'
p981
I22
sS'cnn'
p982
I2
sS'pattern'
p983
I2
sS'423'
p984
I2
sS'425'
p985
I2
sS'pinched'
p986
I2
sS'low-yielding'
p987
I2
sS'expires'
p988
I2
sS'yorker'
p989
I2
sS'energy'
p990
I12
sS'suspensions'
p991
I2
sS'marketing'
p992
I8
sS'payment'
p993
I2
sS'constructive'
p994
I4
sS'burt'
p995
I4
sS'restructuring'
p996
I14
sS'plc'
p997
I6
sS'anti-scientific'
p998
I2
sS'architectural'
p999
I4
sS'losing'
p1000
I4
sS'brokerage'
p1001
I14
sS'post'
p1002
I6
sS'manufacturing'
p1003
I6
sS'democratic'
p1004
I6
sS'properties'
p1005
I2
sS'proceed'
p1006
I2
sS'plug'
p1007
I6
sS'aboard'
p1008
I4
sS'newspapers'
p1009
I14
sS'months'
p1010
I32
sS'hostilities'
p1011
I2
sS'intertwined'
p1012
I2
sS'magazine'
p1013
I10
sS'plus'
p1014
I12
sS'afternoon'
p1015
I16
sS'steadily'
p1016
I6
sS'own'
p1017
I24
sS'efforts'
p1018
I6
sS'japanese-owned'
p1019
I2
sS'sept'
p1020
I6
sS'meddle'
p1021
I2
sS'considerations'
p1022
I4
sS'raised'
p1023
I10
sS'farrell'
p1024
I4
sS'managers'
p1025
I14
sS'publishing'
p1026
I2
sS'amounted'
p1027
I2
sS'civil'
p1028
I4
sS'pays'
p1029
I4
sS'prisoners'
p1030
I2
sS'low-'
p1031
I2
sS'profession'
p1032
I2
sS'down'
p1033
I112
sS'complaints'
p1034
I2
sS'explain'
p1035
I2
sS'bats'
p1036
I8
sS'raises'
p1037
I2
sS'gutfreund'
p1038
I2
sS'balanced'
p1039
I4
sS'sox'
p1040
I2
sS'defendants'
p1041
I2
sS'parade'
p1042
I4
sS'upham'
p1043
I2
sS'existed'
p1044
I2
sS'america'
p1045
I6
sS'crowd'
p1046
I4
sS"o'linn"
p1047
I22
sS'suffice'
p1048
I2
sS'constantly'
p1049
I2
sS'legislation'
p1050
I10
sS'per-share'
p1051
I8
sS'fight'
p1052
I6
sS'well-connected'
p1053
I2
sS'accordingly'
p1054
I6
sS'conservation'
p1055
I6
sS'kazis'
p1056
I2
sS'editor'
p1057
I4
sS'way'
p1058
I12
sS'resulted'
p1059
I10
sS'editions'
p1060
I4
sS'factions'
p1061
I4
sS'was'
p1062
I458
sS'war'
p1063
I6
sS'therefore'
p1064
I4
sS'lowest'
p1065
I6
sS'underestimated'
p1066
I2
sS'medium'
p1067
I2
sS'economics'
p1068
I2
sS'pitching'
p1069
I2
sS'offering'
p1070
I6
sS'offer'
p1071
I66
sS'dataproducts'
p1072
I10
sS'anti-defense'
p1073
I4
sS'jittery'
p1074
I2
sS'deny'
p1075
I4
sS'landing'
p1076
I2
sS'ford'
p1077
I4
sS'peninsula'
p1078
I2
sS'failure'
p1079
I6
sS'ambitious'
p1080
I4
sS'sustained'
p1081
I4
sS'approval'
p1082
I6
sS'removed'
p1083
I2
sS'true'
p1084
I4
sS'analyst'
p1085
I14
sS'15-trader'
p1086
I2
sS'absent'
p1087
I2
sS'high-quality'
p1088
I2
sS'withdrew'
p1089
I2
sS'attached'
p1090
I2
sS'clubs'
p1091
I4
sS'stores'
p1092
I6
sS'tell'
p1093
I4
sS'masato'
p1094
I2
sS'ousted'
p1095
I2
sS'minor'
p1096
I6
sS'anti-debt'
p1097
I4
sS'pall'
p1098
I4
sS'151'
p1099
I2
sS'passenger'
p1100
I2
sS'cobbled'
p1101
I2
sS'adopt'
p1102
I2
sS'proved'
p1103
I4
sS'moore'
p1104
I4
sS'157'
p1105
I2
sS'156'
p1106
I2
sS'request'
p1107
I2
sS'history'
p1108
I6
sS'opportunistic'
p1109
I2
sS'evidence'
p1110
I2
sS'soothe'
p1111
I2
sS'wonderland'
p1112
I4
sS'scientific'
p1113
I2
sS'guessed'
p1114
I2
sS'18-a-share'
p1115
I4
sS'stride'
p1116
I2
sS'floating'
p1117
I2
sS'mrs'
p1118
I2
sS'trip'
p1119
I4
sS'negotiations'
p1120
I14
sS'regime'
p1121
I2
sS'protested'
p1122
I2
sS'families'
p1123
I2
sS'weakened'
p1124
I4
sS'floor'
p1125
I12
sS'phelan'
p1126
I4
sS'whereas'
p1127
I10
sS'stake'
p1128
I14
sS'when'
p1129
I94
sS'topped'
p1130
I2
sS'reality'
p1131
I4
sS'flood'
p1132
I2
sS'setting'
p1133
I4
sS'role'
p1134
I2
sS'sauces'
p1135
I2
sS'holding'
p1136
I10
sS'papers'
p1137
I2
sS'test'
p1138
I6
sS'discount'
p1139
I10
sS'developers'
p1140
I2
sS'erosion'
p1141
I2
sS'shrink'
p1142
I2
sS'scored'
p1143
I2
sS"'s"
p1144
I748
sS'brothers'
p1145
I2
sS'conditioned'
p1146
I4
sS'loan-loss'
p1147
I4
sS'ramada'
p1148
I2
sS'felt'
p1149
I4
sS'gro'
p1150
I2
sS'non-socialist'
p1151
I2
sS'fell'
p1152
I68
sS'intent'
p1153
I2
sS'scores'
p1154
I6
sS'rolling'
p1155
I2
sS"'m"
p1156
I8
sS'weekend'
p1157
I26
sS'derail'
p1158
I4
sS'billion'
p1159
I126
sS'warn'
p1160
I2
sS'faster'
p1161
I2
sS'98'
p1162
I6
sS'daily'
p1163
I4
sS'liquidity'
p1164
I18
sS'premiums'
p1165
I2
sS'time'
p1166
I82
sS'push'
p1167
I4
sS'serious'
p1168
I2
sS'lineup'
p1169
I4
sS'homered'
p1170
I4
sS'profits'
p1171
I4
sS'basically'
p1172
I4
sS'concept'
p1173
I4
sS'managed'
p1174
I2
sS'chain'
p1175
I8
sS'write-off'
p1176
I6
sS'single-family'
p1177
I2
sS'rooters'
p1178
I2
sS'margined'
p1179
I2
sS'sympathetic'
p1180
I8
sS'leads'
p1181
I6
sS'manager'
p1182
I14
sS'supplement'
p1183
I8
sS'five-game'
p1184
I4
sS'battle'
p1185
I2
sS'shot'
p1186
I2
sS'displaying'
p1187
I4
sS'boomers'
p1188
I2
sS'row'
p1189
I4
sS'computing'
p1190
I2
sS'hold'
p1191
I8
sS'william'
p1192
I2
sS'unlit'
p1193
I2
sS'1943'
p1194
I2
sS'promote'
p1195
I2
sS'editors'
p1196
I4
sS'1945'
p1197
I2
sS'environment'
p1198
I10
sS'0'
I14
sS'charge'
p1199
I2
sS'asking'
p1200
I2
sS'hobbies'
p1201
I2
sS'97'
p1202
I10
sS'supplies'
p1203
I8
sS'valero'
p1204
I4
sS'suffered'
p1205
I4
sS'96'
p1206
I6
sS'oversight'
p1207
I4
sS'turnabout'
p1208
I2
sS'henderson'
p1209
I2
sS'division'
p1210
I6
sS'string'
p1211
I4
sS'broadly'
p1212
I2
sS'solid'
p1213
I2
sS'sponsors'
p1214
I2
sS'automobiles'
p1215
I2
sS'drexel'
p1216
I2
sS'lynch'
p1217
I18
sS'entries'
p1218
I2
sS'trouble'
p1219
I2
sS'cool'
p1220
I4
sS'perceived'
p1221
I4
sS'dating'
p1222
I2
sS'reining'
p1223
I2
sS'level'
p1224
I10
sS'did'
p1225
I52
sS'cleaners'
p1226
I2
sS'1996'
p1227
I2
sS'hawaii'
p1228
I6
sS'earmarked'
p1229
I2
sS'standards'
p1230
I8
sS'parker'
p1231
I6
sS'p'
I40
sS'domestically'
p1232
I4
sS'asset-management'
p1233
I2
sS'team'
p1234
I14
sS'quick'
p1235
I2
sS'lever'
p1236
I2
sS'guy'
p1237
I6
sS'round'
p1238
I4
sS'lloyd'
p1239
I2
sS'prevent'
p1240
I16
sS'pork'
p1241
I4
sS'tremendously'
p1242
I2
sS'says'
p1243
I52
sS'trend'
p1244
I4
sS'regained'
p1245
I2
sS'prediction'
p1246
I2
sS'telerate'
p1247
I14
sS'sign'
p1248
I2
sS'widened'
p1249
I4
sS'trading-related'
p1250
I4
sS'cost'
p1251
I6
sS'scarcity'
p1252
I2
sS'3655'
p1253
I4
sS'photographed'
p1254
I2
sS'fear'
p1255
I4
sS'substitute'
p1256
I2
sS'resurgence'
p1257
I2
sS'appear'
p1258
I2
sS'representative'
p1259
I2
sS'multibillion-dollar'
p1260
I2
sS'jeopardy'
p1261
I2
sS'dunkin'
p1262
I6
sS'shares'
p1263
I102
sS'current'
p1264
I12
sS'goes'
p1265
I16
sS'523'
p1266
I2
sS'international'
p1267
I24
sS'falling'
p1268
I20
sS'appeal'
p1269
I2
sS'boost'
p1270
I2
sS'dental'
p1271
I2
sS'halts'
p1272
I8
sS'satisfy'
p1273
I4
sS'collateral'
p1274
I2
sS'foreign-debt'
p1275
I2
sS'transportation'
p1276
I10
sS'vanderbilt'
p1277
I2
sS'french'
p1278
I8
sS'agreement'
p1279
I30
sS'water'
p1280
I6
sS'slow'
p1281
I2
sS'baseball'
p1282
I4
sS'groups'
p1283
I10
sS'alone'
p1284
I12
sS'along'
p1285
I18
sS'appears'
p1286
I4
sS'change'
p1287
I8
sS'wait'
p1288
I6
sS'sending'
p1289
I2
sS'unidentified'
p1290
I2
sS'exemption'
p1291
I2
sS'canadian'
p1292
I12
sS'cover'
p1293
I8
sS'my'
p1294
I16
sS'studied'
p1295
I2
sS'grinned'
p1296
I4
sS'programmed'
p1297
I4
sS'trial'
p1298
I4
sS'exemplifies'
p1299
I2
sS'chemical'
p1300
I2
sS'pediatric'
p1301
I2
sS'439'
p1302
I6
sS'usually'
p1303
I2
sS'corp'
p1304
I48
sS'435'
p1305
I2
sS'studies'
p1306
I2
sS'taipei'
p1307
I2
sS'love'
p1308
I6
sS'santa'
p1309
I2
sS'problematic'
p1310
I2
sS'lending'
p1311
I2
sS'oel'
p1312
I4
sS'prefer'
p1313
I6
sS'marked'
p1314
I2
sS'flexibility'
p1315
I2
sS'crisis'
p1316
I2
sS'market'
p1317
I368
sS'everybody'
p1318
I14
sS'multilayer'
p1319
I2
sS'opposes'
p1320
I2
sS'handled'
p1321
I6
sS'working'
p1322
I16
sS'prove'
p1323
I2
sS'photographic'
p1324
I10
sS'visit'
p1325
I2
sS'third-quarter'
p1326
I12
sS'france'
p1327
I6
sS'live'
p1328
I2
sS'andy'
p1329
I8
sS'opposed'
p1330
I2
sS'films'
p1331
I4
sS'black'
p1332
I56
sS'cited'
p1333
I4
sS'today'
p1334
I30
sS'introducing'
p1335
I2
sS'warrior'
p1336
I4
sS'club'
p1337
I4
sS'india'
p1338
I18
sS'phillies'
p1339
I4
sS'airline-acquisition'
p1340
I2
sS'validity'
p1341
I2
sS'approving'
p1342
I2
sS'cautious'
p1343
I4
sS'savior'
p1344
I2
sS'prominent'
p1345
I2
sS'cases'
p1346
I2
sS'effort'
p1347
I12
sS'pegged'
p1348
I2
sS'attractiveness'
p1349
I2
sS'states'
p1350
I16
sS'pageant'
p1351
I2
sS'ibm'
p1352
I4
sS'tokyo'
p1353
I44
sS'car'
p1354
I6
sS'originally'
p1355
I4
sS'believes'
p1356
I8
sS'reviews'
p1357
I2
sS'hardest'
p1358
I6
sS'satisfactorily'
p1359
I4
sS'values'
p1360
I12
sS'can'
p1361
I58
sS'cac'
p1362
I2
sS'making'
p1363
I14
sS'caa'
p1364
I2
sS'dispute'
p1365
I2
sS'bites'
p1366
I2
sS'dollars'
p1367
I4
sS'reviewing'
p1368
I4
sS'regularly'
p1369
I2
sS'citizens'
p1370
I4
sS'trump'
p1371
I8
sS'figure'
p1372
I2
sS'mirrors'
p1373
I2
sS'lobbying'
p1374
I4
sS'december'
p1375
I20
sS'subsidies'
p1376
I14
sS'boesel'
p1377
I2
sS'parachute'
p1378
I2
sS'heard'
p1379
I2
sS'chin'
p1380
I2
sS'dropped'
p1381
I28
sS'council'
p1382
I8
sS'allowed'
p1383
I4
sS'230'
p1384
I4
sS'sell-order'
p1385
I4
sS'232'
p1386
I4
sS'233'
p1387
I2
sS'domenici'
p1388
I4
sS'arbor'
p1389
I2
sS'requirements'
p1390
I10
sS'prod'
p1391
I2
sS'piled'
p1392
I4
sS'oslo'
p1393
I2
sS'secured'
p1394
I6
sS'bonds'
p1395
I28
sS'anti-toxic'
p1396
I4
sS'1'
I188
sS'immune'
p1397
I2
sS'sunday'
p1398
I12
sS'advancing'
p1399
I2
sS'fourth'
p1400
I12
sS'142-page'
p1401
I2
sS'dominance'
p1402
I4
sS't-shirts'
p1403
I2
sS'economy'
p1404
I22
sS'bond-price'
p1405
I2
sS'staying'
p1406
I8
sS'paramount'
p1407
I4
sS'143'
p1408
I2
sS'140'
p1409
I2
sS'information'
p1410
I6
sS'may'
p1411
I42
sS'dive'
p1412
I4
sS'fed'
p1413
I6
sS'spot'
p1414
I8
sS'respective'
p1415
I2
sS'149'
p1416
I2
sS'helmut'
p1417
I2
sS'produce'
p1418
I4
sS'tipped'
p1419
I2
sS'bear'
p1420
I20
sS'date'
p1421
I16
sS'drastic'
p1422
I2
sS'heroes'
p1423
I2
sS'employers'
p1424
I4
sS'guys'
p1425
I2
sS'rickey'
p1426
I2
sS'repeat'
p1427
I6
sS'processors'
p1428
I4
sS'scrambling'
p1429
I2
sS'natural'
p1430
I12
sS'varieties'
p1431
I4
sS'sectors'
p1432
I4
sS'b-3'
p1433
I2
sS'whenever'
p1434
I2
sS'slightly'
p1435
I10
sS'futures'
p1436
I60
sS'explicit'
p1437
I2
sS'40-year'
p1438
I2
sS'st'
p1439
I2
sS'cascade'
p1440
I2
sS'accelerated'
p1441
I2
sS'so'
p1442
I88
sS'deposit'
p1443
I4
sS'african'
p1444
I6
sS'pulled'
p1445
I4
sS'nynex'
p1446
I4
sS'talk'
p1447
I2
sS'125'
p1448
I6
sS'cotton-growing'
p1449
I2
sS'serving'
p1450
I2
sS'126'
p1451
I4
sS'sell-off'
p1452
I4
sS'indeed'
p1453
I26
sS'differences'
p1454
I2
sS'displayed'
p1455
I2
sS'unacceptable'
p1456
I2
sS'kong'
p1457
I16
sS'stability'
p1458
I2
sS'ended'
p1459
I40
sS'kingsbridge'
p1460
I2
sS'pitch'
p1461
I6
sS'cold'
p1462
I6
sS'still'
p1463
I36
sS'stock-index'
p1464
I18
sS'restructurings'
p1465
I8
sS'leases'
p1466
I6
sS'police'
p1467
I4
sS'monitor'
p1468
I2
sS'internationally'
p1469
I4
sS'how'
p1470
I14
sS'lackluster'
p1471
I2
sS'procedures'
p1472
I8
sS'wallach'
p1473
I4
sS'forms'
p1474
I4
sS'offers'
p1475
I8
sS'proclamation'
p1476
I2
sS'millon'
p1477
I2
sS'policy'
p1478
I10
sS'coordinated'
p1479
I2
sS'troubled'
p1480
I4
sS'norway'
p1481
I6
sS'texas'
p1482
I20
sS'happened'
p1483
I12
sS'000-plus'
p1484
I2
sS'float'
p1485
I2
sS'halt'
p1486
I12
sS'disparate'
p1487
I2
sS'cheers'
p1488
I2
sS'conversations'
p1489
I2
sS'sooner'
p1490
I2
sS'nation'
p1491
I28
sS'underneath'
p1492
I4
sS'warranted'
p1493
I2
sS'transmissions'
p1494
I2
sS'qualified'
p1495
I2
sS'drilling'
p1496
I2
sS'shadow'
p1497
I4
sS'half'
p1498
I26
sS'not'
p1499
I72
sS'feature'
p1500
I2
sS'nov'
p1501
I16
sS'now'
p1502
I50
sS'provision'
p1503
I10
sS'killed'
p1504
I4
sS'subordinated'
p1505
I4
sS'nos'
p1506
I2
sS'spreads'
p1507
I2
sS'high-leverage'
p1508
I6
sS'execute'
p1509
I6
sS'shouted'
p1510
I16
sS'name'
p1511
I18
sS'stabilize'
p1512
I4
sS'philip'
p1513
I2
sS'james'
p1514
I10
sS'drop'
p1515
I28
sS'realistic'
p1516
I2
sS'danbury'
p1517
I2
sS'stockholm'
p1518
I2
sS'h'
I8
sS'entirely'
p1519
I4
sS'quarter'
p1520
I72
sS'jenrette'
p1521
I2
sS'successful'
p1522
I2
sS'el'
p1523
I2
sS'en'
p1524
I4
sS'prompted'
p1525
I4
sS'zurich'
p1526
I2
sS'revised'
p1527
I8
sS'618'
p1528
I2
sS'ec'
p1529
I4
sS'challenges'
p1530
I2
sS'catching'
p1531
I2
sS'sponsor'
p1532
I2
sS'begun'
p1533
I4
sS'wcrs'
p1534
I4
sS'beseler'
p1535
I4
sS'happen'
p1536
I2
sS'agip'
p1537
I2
sS'save-the-earth'
p1538
I2
sS'monitors'
p1539
I2
sS'seoul'
p1540
I4
sS'canada'
p1541
I8
sS'ultimately'
p1542
I4
sS'bellsouth'
p1543
I4
sS'opened'
p1544
I52
sS'bullish'
p1545
I12
sS'factors'
p1546
I8
sS'profit'
p1547
I24
sS'furthermore'
p1548
I2
sS'activities'
p1549
I2
sS'increase'
p1550
I44
sS'attracted'
p1551
I2
sS'bailout'
p1552
I10
sS'dioxide'
p1553
I6
sS'suggesting'
p1554
I4
sS'receiving'
p1555
I2
sS'correct'
p1556
I2
sS'assurance'
p1557
I4
sS'shows'
p1558
I8
sS'inevitably'
p1559
I2
sS'earlier'
p1560
I28
sS'theory'
p1561
I4
sS'curbs'
p1562
I2
sS'state'
p1563
I34
sS'million'
p1564
I320
sS'seventh'
p1565
I6
sS'possibility'
p1566
I2
sS'quite'
p1567
I2
sS'dig'
p1568
I16
sS'complicated'
p1569
I2
sS'besides'
p1570
I6
sS'excesses'
p1571
I6
sS'farley'
p1572
I2
sS'obligation'
p1573
I4
sS'ore'
p1574
I2
sS'dispatches'
p1575
I2
sS'lme'
p1576
I2
sS'care'
p1577
I6
sS'advance'
p1578
I2
sS'confidentiality'
p1579
I2
sS'language'
p1580
I4
sS'1994'
p1581
I2
sS'snapshots'
p1582
I4
sS'collapsing'
p1583
I2
sS'impose'
p1584
I8
sS'modest'
p1585
I12
sS'british'
p1586
I16
sS'thing'
p1587
I22
sS'place'
p1588
I34
sS'massive'
p1589
I2
sS'swing'
p1590
I2
sS'routes'
p1591
I4
sS'batterymarch'
p1592
I4
sS'pleasant'
p1593
I2
sS'think'
p1594
I12
sS'first'
p1595
I60
sS'exotic'
p1596
I2
sS'acco'
p1597
I2
sS'merrill'
p1598
I18
sS'625'
p1599
I4
sS'revenue'
p1600
I54
sS'question'
p1601
I4
sS'waves'
p1602
I2
sS'accruing'
p1603
I2
sS'one'
p1604
I104
sS'montreal'
p1605
I2
sS'americans'
p1606
I2
sS'long'
p1607
I24
sS'suspended'
p1608
I6
sS'vote'
p1609
I8
sS'impossible'
p1610
I2
sS'message'
p1611
I4
sS'six-hour'
p1612
I2
sS'open'
p1613
I34
sS'tomorrow'
p1614
I12
sS"'em"
p1615
I6
sS'size'
p1616
I6
sS'city'
p1617
I4
sS'little'
p1618
I24
sS'officials'
p1619
I16
sS'silent'
p1620
I2
sS'district'
p1621
I4
sS'waned'
p1622
I2
sS'caught'
p1623
I14
sS'plastic'
p1624
I2
sS'anyone'
p1625
I4
sS'imposing'
p1626
I2
sS'bourse'
p1627
I2
sS'2'
I114
sS'tragic'
p1628
I4
sS'joel'
p1629
I2
sS'lobbyists'
p1630
I2
sS'articles'
p1631
I2
sS'rowe'
p1632
I2
sS'white'
p1633
I38
sS'structures'
p1634
I4
sS'williams'
p1635
I4
sS'gives'
p1636
I4
sS'hud'
p1637
I12
sS'eyes'
p1638
I2
sS'dealmakers'
p1639
I2
sS'less-than-alarming'
p1640
I4
sS'that'
p1641
I522
sS'pittsburgh'
p1642
I2
sS'season'
p1643
I10
sS'taxation'
p1644
I2
sS'accurately'
p1645
I2
sS'broadcast'
p1646
I4
sS'released'
p1647
I4
sS'processed'
p1648
I2
sS'hartford'
p1649
I2
sS'slashed'
p1650
I4
sS'specialists'
p1651
I16
sS'peck'
p1652
I4
sS'holder'
p1653
I4
sS'than'
p1654
I112
sS'merged'
p1655
I4
sS'population'
p1656
I2
sS'11'
p1657
I26
sS'10'
p1658
I78
sS'television'
p1659
I8
sS'12'
p1660
I48
sS'15'
p1661
I36
sS'third'
p1662
I48
sS'17'
p1663
I14
sS'16'
p1664
I18
sS'19'
p1665
I32
sS'18'
p1666
I10
sS'require'
p1667
I10
sS'diplomatic'
p1668
I4
sS'optimism'
p1669
I2
sS'so-so'
p1670
I2
sS'future'
p1671
I8
sS'djia'
p1672
I2
sS'were'
p1673
I148
sS'cards'
p1674
I2
sS'powder'
p1675
I2
sS'and'
p1676
I1092
sS'troublesome'
p1677
I2
sS'san'
p1678
I10
sS'sam'
p1679
I4
sS'remained'
p1680
I10
sS'craig'
p1681
I2
sS'ann'
p1682
I2
sS'turned'
p1683
I16
sS'argument'
p1684
I2
sS'medical'
p1685
I8
sS'say'
p1686
I14
sS'insurrection'
p1687
I2
sS'investment-grade'
p1688
I2
sS'financier'
p1689
I2
sS'right-to-work'
p1690
I2
sS'portrait'
p1691
I8
sS'monochrome'
p1692
I6
sS'sells'
p1693
I2
sS'saw'
p1694
I6
sS'any'
p1695
I58
sS'batting'
p1696
I2
sS'sat'
p1697
I6
sS'bailed'
p1698
I2
sS'fashionable'
p1699
I2
sS'coliseum'
p1700
I4
sS'veteran'
p1701
I2
sS'upgrading'
p1702
I2
sS'aside'
p1703
I4
sS'instructed'
p1704
I2
sS'masse'
p1705
I4
sS'equipment'
p1706
I26
sS'potential'
p1707
I6
sS'take'
p1708
I20
sS'repeatedly'
p1709
I2
sS'maxus'
p1710
I4
sS'objective'
p1711
I2
sS'performance'
p1712
I18
sS'concern'
p1713
I36
sS'blunt'
p1714
I2
sS'registered'
p1715
I2
sS'201'
p1716
I2
sS'200'
p1717
I12
sS'begin'
p1718
I8
sS'printer'
p1719
I4
sS'pain'
p1720
I2
sS'204'
p1721
I2
sS'normal'
p1722
I6
sS'track'
p1723
I2
sS'revolving'
p1724
I2
sS'price'
p1725
I76
sS'pell-mell'
p1726
I2
sS'paid'
p1727
I4
sS'falls'
p1728
I8
sS'barrage'
p1729
I4
sS'1929'
p1730
I6
sS'vitality'
p1731
I2
sS'rationale'
p1732
I4
sS'suppression'
p1733
I4
sS'knee'
p1734
I4
sS'educations'
p1735
I2
sS'commerzbank'
p1736
I2
sS'pages'
p1737
I6
sS'hudbay'
p1738
I4
sS'acknowledges'
p1739
I2
sS'stouffer'
p1740
I2
sS'especially'
p1741
I6
sS'inched'
p1742
I4
sS'considered'
p1743
I18
sS'jakarta'
p1744
I2
sS'average'
p1745
I48
sS'later'
p1746
I14
sS'implications'
p1747
I2
sS'sale'
p1748
I32
sS'pernicious'
p1749
I2
sS'federal'
p1750
I70
sS'jitters'
p1751
I2
sS'triggering'
p1752
I2
sS'subsequent'
p1753
I6
sS'conservatively'
p1754
I2
sS'professional'
p1755
I6
sS'senior'
p1756
I8
sS'typically'
p1757
I2
sS'filing'
p1758
I2
sS'forecasters'
p1759
I2
sS'laws'
p1760
I2
sS'shop'
p1761
I2
sS'rating'
p1762
I10
sS'walking'
p1763
I4
sS'medalist'
p1764
I2
sS'playoffs'
p1765
I10
sS'coupon-equivalent'
p1766
I2
sS'show'
p1767
I12
sS'german'
p1768
I16
sS'ralph'
p1769
I2
sS'delta'
p1770
I6
sS'cheap'
p1771
I2
sS'representatives'
p1772
I2
sS'corney'
p1773
I4
sS'bedside'
p1774
I2
sS'shorter-term'
p1775
I4
sS'right-hander'
p1776
I2
sS'aggressive'
p1777
I6
sS'california'
p1778
I14
sS'urgings'
p1779
I2
sS'fish-processing'
p1780
I2
sS'fifth'
p1781
I2
sS'ground'
p1782
I4
sS'specifically'
p1783
I84
sS'dapuzzo'
p1784
I4
sS'mubarak'
p1785
I2
sS'title'
p1786
I2
sS'223'
p1787
I2
sS'franz'
p1788
I2
sS'enough'
p1789
I8
sS'crime'
p1790
I8
sS'swamped'
p1791
I2
sS'only'
p1792
I56
sS'going'
p1793
I24
sS'streeter'
p1794
I6
sS'ceremonies'
p1795
I2
sS'treasury'
p1796
I32
sS'sierra'
p1797
I4
sS'enthusiasm'
p1798
I2
sS'blinds'
p1799
I2
sS'posted'
p1800
I18
sS'congressional'
p1801
I10
sS'carolina'
p1802
I2
sS'narrows'
p1803
I2
sS'cautioned'
p1804
I2
sS'get'
p1805
I36
sS'contracts'
p1806
I16
sS'indonesian'
p1807
I2
sS'expectation'
p1808
I2
sS'soon'
p1809
I4
sS'hailed'
p1810
I2
sS'restatement'
p1811
I2
sS'nearly'
p1812
I22
sS'installed'
p1813
I2
sS'15-a-share'
p1814
I2
sS'lbos'
p1815
I2
sS'regarding'
p1816
I2
sS'resorts'
p1817
I4
sS'outperform'
p1818
I2
sS'fromstein'
p1819
I10
sS'median'
p1820
I8
sS'borrow'
p1821
I4
sS'yield'
p1822
I6
sS'morning'
p1823
I28
sS'sum'
p1824
I4
sS'paper'
p1825
I8
sS'roger'
p1826
I4
sS'predicted'
p1827
I4
sS'scott'
p1828
I4
sS'where'
p1829
I32
sS'worrying'
p1830
I2
sS'vision'
p1831
I2
sS'salomon'
p1832
I2
sS'reveals'
p1833
I4
sS'declared'
p1834
I2
sS'lasers'
p1835
I2
sS'burst'
p1836
I4
sS'physically'
p1837
I2
sS'staged'
p1838
I4
sS'violated'
p1839
I2
sS'mom'
p1840
I2
sS'seat'
p1841
I4
sS'relative'
p1842
I4
sS'unfit'
p1843
I2
sS'college'
p1844
I4
sS'parking'
p1845
I2
sS'stanley'
p1846
I34
sS'surgery'
p1847
I4
sS'infinitely'
p1848
I2
sS'dives'
p1849
I2
sS'encouraged'
p1850
I4
sS'surfaces'
p1851
I2
sS'receipt'
p1852
I2
sS'mortgage'
p1853
I16
sS'farmers'
p1854
I6
sS'ways'
p1855
I12
sS'jumped'
p1856
I12
sS'review'
p1857
I2
sS'839'
p1858
I2
sS'commitments'
p1859
I4
sS'label'
p1860
I2
sS'3'
I130
sS'bureau'
p1861
I2
sS'inquiries'
p1862
I2
sS'between'
p1863
I18
sS'without'
p1864
I12
sS'accustomed'
p1865
I2
sS'reading'
p1866
I4
sS'across'
p1867
I6
sS'august'
p1868
I20
sS'parent'
p1869
I8
sS'receivers'
p1870
I4
sS'approvals'
p1871
I2
sS'screen'
p1872
I14
sS'laced'
p1873
I2
sS'rapidly'
p1874
I2
sS'oberstar'
p1875
I2
sS'fiddling'
p1876
I2
sS'now-defunct'
p1877
I2
sS'highlight'
p1878
I2
sS'smiled'
p1879
I2
sS'comeback'
p1880
I6
sS'cities'
p1881
I2
sS'come'
p1882
I12
sS'concentrated'
p1883
I4
sS'reaction'
p1884
I4
sS'acquiring'
p1885
I2
sS'carpeted'
p1886
I2
sS'libya'
p1887
I2
sS'feelers'
p1888
I2
sS'successes'
p1889
I2
sS'many'
p1890
I78
sS'trader'
p1891
I28
sS'23'
p1892
I8
sS'according'
p1893
I22
sS'contract'
p1894
I40
sS'personal'
p1895
I2
sS's'
I120
sS'punts'
p1896
I10
sS'patrons'
p1897
I4
sS'dated'
p1898
I4
sS'buy-back'
p1899
I2
sS'senator'
p1900
I4
sS'holders'
p1901
I14
sS'expression'
p1902
I2
sS'comes'
p1903
I4
sS'nearby'
p1904
I4
sS'among'
p1905
I26
sS'christic'
p1906
I2
sS'150'
p1907
I2
sS'color'
p1908
I22
sS'28'
p1909
I6
sS'mandate'
p1910
I4
sS'jeans'
p1911
I4
sS'period'
p1912
I12
sS'insist'
p1913
I2
sS'60'
p1914
I20
sS'61'
p1915
I2
sS'no-smoking'
p1916
I4
sS'63'
p1917
I12
sS'64'
p1918
I2
sS'65'
p1919
I10
sS'66'
p1920
I8
sS'67'
p1921
I4
sS'68'
p1922
I6
sS'69'
p1923
I8
sS'100-share'
p1924
I2
sS'mattress'
p1925
I2
sS'two-year'
p1926
I4
sS'considers'
p1927
I2
sS'runaway'
p1928
I2
sS'save'
p1929
I2
sS'unusual'
p1930
I4
sS'capable'
p1931
I2
sS'stretch'
p1932
I4
sS'west'
p1933
I34
sS'over-the-counter'
p1934
I4
sS'airlines'
p1935
I4
sS'concede'
p1936
I4
sS'mark'
p1937
I10
sS'hutton'
p1938
I12
sS'prime'
p1939
I2
sS'combined'
p1940
I6
sS'508'
p1941
I4
sS'dangers'
p1942
I4
sS'women'
p1943
I4
sS'borders'
p1944
I2
sS'centrust'
p1945
I2
sS'mary'
p1946
I2
sS'500'
p1947
I14
sS'systems'
p1948
I12
sS'wants'
p1949
I2
sS'direction'
p1950
I10
sS'bma'
p1951
I2
sS'19-to-'
p1952
I2
sS'lustily'
p1953
I2
sS'reimburse'
p1954
I4
sS'offered'
p1955
I6
sS'formed'
p1956
I2
sS'curbing'
p1957
I2
sS'tiger'
p1958
I4
sS'photos'
p1959
I4
sS'observe'
p1960
I2
sS'wake'
p1961
I4
sS'external'
p1962
I2
sS'offshore'
p1963
I2
sS'careful'
p1964
I6
sS'former'
p1965
I2
sS'those'
p1966
I22
sS'philosophically'
p1967
I2
sS'case'
p1968
I14
sS"''"
p1969
I214
sS'hughes'
p1970
I4
sS'disconnected'
p1971
I2
sS'developing'
p1972
I2
sS'these'
p1973
I24
sS'consultant'
p1974
I2
sS'cash'
p1975
I16
sS'arnold'
p1976
I8
sS"n't"
p1977
I202
sS'cast'
p1978
I4
sS'novello'
p1979
I4
sS'warning'
p1980
I4
sS'ongoing'
p1981
I2
sS'pizza'
p1982
I12
sS'jefferies'
p1983
I8
sS'newspaper'
p1984
I2
sS'investigating'
p1985
I4
sS'antony'
p1986
I2
sS'region'
p1987
I4
sS'program'
p1988
I46
sS'wish-lists'
p1989
I4
sS'eventually'
p1990
I2
sS'j'
I12
sS'telephone'
p1991
I10
sS'bros'
p1992
I2
sS'quiet'
p1993
I2
sS'laggard'
p1994
I2
sS'good'
p1995
I50
sS'punched'
p1996
I6
sS'bargain-hunting'
p1997
I6
sS'heels'
p1998
I2
sS'spooked'
p1999
I2
sS'wisely'
p2000
I2
sS'technology'
p2001
I2
sS'diseases'
p2002
I2
sS'intense'
p2003
I4
sS'pat'
p2004
I4
sS'harsh'
p2005
I2
sS'rooting'
p2006
I4
sS'pay'
p2007
I10
sS'same'
p2008
I14
sS'prevented'
p2009
I2
sS'pad'
p2010
I102638
sS'manila'
p2011
I2
sS'buys'
p2012
I2
sS'grain'
p2013
I2
sS'bring'
p2014
I2
sS'events'
p2015
I12
sS'comex'
p2016
I2
sS'week'
p2017
I46
sS'buy-outs'
p2018
I2
sS'extended'
p2019
I10
sS'singapore'
p2020
I8
sS'third-party'
p2021
I2
sS'driver'
p2022
I2
sS'cluett'
p2023
I6
sS'deflate'
p2024
I2
sS'intimidation'
p2025
I4
sS'driven'
p2026
I2
sS'running'
p2027
I14
sS'fruit'
p2028
I2
sS'investigates'
p2029
I2
sS'arose'
p2030
I2
sS'favorites'
p2031
I2
sS'changing'
p2032
I2
sS'racketeering'
p2033
I2
sS'anticipated'
p2034
I2
sS'vowed'
p2035
I2
sS'complained'
p2036
I4
sS'costa'
p2037
I2
sS'8086'
p2038
I2
sS'highland'
p2039
I6
sS'eventual'
p2040
I4
sS'largely'
p2041
I8
sS'minimize'
p2042
I2
sS'underwritings'
p2043
I2
sS'no'
p2044
I44
sS'constitutional'
p2045
I2
sS'roughly'
p2046
I4
sS'mortgages'
p2047
I8
sS'severe'
p2048
I4
sS'costs'
p2049
I8
sS'solve'
p2050
I6
sS'congressmen'
p2051
I2
sS'460'
p2052
I2
sS'easing'
p2053
I10
sS'a-men'
p2054
I2
sS'commercials'
p2055
I14
sS'korps'
p2056
I2
sS'candidates'
p2057
I2
sS'summer'
p2058
I4
sS'toxics'
p2059
I4
sS'215'
p2060
I2
sS'gaining'
p2061
I2
sS'suitor'
p2062
I2
sS'politico-plaintiffs'
p2063
I2
sS'being'
p2064
I24
sS'fears'
p2065
I6
sS'adjustments'
p2066
I2
sS'3-for-3'
p2067
I4
sS'lebaron'
p2068
I8
sS'leeway'
p2069
I2
sS'slugger'
p2070
I2
sS'touch'
p2071
I2
sS'two-thirds'
p2072
I2
sS'speed'
p2073
I2
sS'captured'
p2074
I2
sS'weekly'
p2075
I2
sS'announcement'
p2076
I2
sS'76'
p2077
I6
sS'represented'
p2078
I2
sS'mcdonald'
p2079
I2
sS'rose'
p2080
I54
sS'seems'
p2081
I12
sS'except'
p2082
I2
sS'desktop'
p2083
I2
sS'combatants'
p2084
I2
sS'compaction'
p2085
I2
sS'interested'
p2086
I4
sS'4'
I128
sS'deminex'
p2087
I4
sS'complements'
p2088
I2
sS'overbought'
p2089
I2
sS'struck'
p2090
I6
sS'ca'
p2091
I10
sS'scheduled'
p2092
I8
sS'conferees'
p2093
I2
sS'epson'
p2094
I2
sS'around'
p2095
I24
sS'bryan'
p2096
I4
sS'rules'
p2097
I14
sS'early'
p2098
I30
sS'np'
p2099
I2
sS'inflation'
p2100
I2
sS'traffic'
p2101
I2
sS'detract'
p2102
I2
sS'secrecy'
p2103
I2
sS'world'
p2104
I28
sS'snare'
p2105
I2
sS'amr'
p2106
I18
sS'moreover'
p2107
I4
sS'split-fingered'
p2108
I4
sS'intel'
p2109
I10
sS'life-insurance'
p2110
I2
sS'photographs'
p2111
I4
sS'collective'
p2112
I4
sS'62'
p2113
I10
sS'split-finger'
p2114
I2
sS"'ve"
p2115
I10
sS'annually'
p2116
I2
sS'benefit'
p2117
I6
sS'grants'
p2118
I4
sS'either'
p2119
I8
sS'retailers'
p2120
I4
sS'always'
p2121
I6
sS'served'
p2122
I6
sS'downward'
p2123
I4
sS'rtc-owned'
p2124
I2
sS'reduced'
p2125
I10
sS'satisfactory'
p2126
I2
sS'pittsburg'
p2127
I2
sS'pushy'
p2128
I2
sS'madrid'
p2129
I4
sS'pacific'
p2130
I8
sS'calculated'
p2131
I4
sS'erase'
p2132
I2
sS'coaster'
p2133
I2
sS'30-share'
p2134
I2
sS'reconsider'
p2135
I2
sS'thinks'
p2136
I2
sS'provided'
p2137
I10
sS'verret'
p2138
I2
sS'technologist'
p2139
I2
sS'confirm'
p2140
I4
sS'memories'
p2141
I4
sS'willis'
p2142
I4
sS'dudley'
p2143
I2
sS'legal'
p2144
I10
sS'conservative'
p2145
I4
sS'republicbank'
p2146
I2
sS'critical'
p2147
I2
sS'deficit'
p2148
I16
sS'provides'
p2149
I2
sS'provider'
p2150
I4
sS'hertz'
p2151
I8
sS'francois'
p2152
I2
sS'freed'
p2153
I2
sS'2600'
p2154
I6
sS'contingent'
p2155
I2
sS'business'
p2156
I26
sS'seconds'
p2157
I4
sS'retains'
p2158
I2
sS'equivalent'
p2159
I2
sS'each'
p2160
I26
sS'broker'
p2161
I2
sS'tuition'
p2162
I2
sS'notably'
p2163
I2
sS'credits'
p2164
I2
sS'winningest'
p2165
I4
sS'leadership'
p2166
I6
sS'hectic'
p2167
I2
sS'budget-priced'
p2168
I2
sS'prepared'
p2169
I6
sS'ignored'
p2170
I2
sS'uses'
p2171
I2
sS'manufacturer'
p2172
I2
sS'comparison'
p2173
I30
sS'845'
p2174
I2
sS'subdued'
p2175
I4
sS'package'
p2176
I2
sS'of'
p2177
I1396
sS'industry'
p2178
I16
sS'marc'
p2179
I2
sS'soulmates'
p2180
I2
sS'drag'
p2181
I4
sS'374'
p2182
I4
sS'practical'
p2183
I2
sS'selkin'
p2184
I2
sS"'d"
p2185
I14
sS'stand'
p2186
I4
sS'barry'
p2187
I14
sS'mixed'
p2188
I2
sS'johnston'
p2189
I2
sS'376'
p2190
I4
sS'or'
p2191
I228
sS'road'
p2192
I2
sS'redress'
p2193
I4
sS'outlook'
p2194
I4
sS'fundraising'
p2195
I2
sS'aerial'
p2196
I2
sS'noting'
p2197
I2
sS'crewcut'
p2198
I2
sS'garner'
p2199
I6
sS'rising'
p2200
I12
sS'determine'
p2201
I2
sS'operator'
p2202
I2
sS'angola'
p2203
I2
sS'valuable'
p2204
I2
sS'happening'
p2205
I2
sS'invested'
p2206
I2
sS'your'
p2207
I6
sS'1738'
p2208
I2
sS'her'
p2209
I8
sS'area'
p2210
I10
sS'classic'
p2211
I4
sS'strictly'
p2212
I2
sS'there'
p2213
I72
sS'relocation'
p2214
I4
sS'hey'
p2215
I2
sS'stark'
p2216
I6
sS'los'
p2217
I6
sS'manageable'
p2218
I2
sS'low'
p2219
I16
sS'lot'
p2220
I18
sS'brazilian'
p2221
I2
sS'decisive'
p2222
I4
sS'valley'
p2223
I6
sS'fastball'
p2224
I6
sS'bargain'
p2225
I2
sS'agreements'
p2226
I2
sS'ago'
p2227
I30
sS'municipalities'
p2228
I4
sS'750'
p2229
I2
sS'757'
p2230
I2
sS'rjr'
p2231
I4
sS'fundamentals'
p2232
I4
sS'pitcher'
p2233
I4
sS'delayed'
p2234
I8
sS'cabinet'
p2235
I2
sS'downshoot'
p2236
I2
sS'wiping'
p2237
I4
sS'plunking'
p2238
I2
sS'mich'
p2239
I2
sS'elimination'
p2240
I2
sS'technologies'
p2241
I4
sS'trying'
p2242
I12
sS'with'
p2243
I268
sS'60-second'
p2244
I2
sS'buying'
p2245
I30
sS'longer'
p2246
I10
sS'pull'
p2247
I2
sS'rush'
p2248
I4
sS'october'
p2249
I24
sS'celebrating'
p2250
I4
sS'appliance'
p2251
I2
sS'emissions'
p2252
I2
sS'politically'
p2253
I2
sS'builders'
p2254
I6
sS'agree'
p2255
I8
sS'strongly'
p2256
I4
sS'gone'
p2257
I10
sS'intents'
p2258
I2
sS'money'
p2259
I30
sS'600'
p2260
I8
sS'ag'
p2261
I8
sS'certain'
p2262
I10
sS'stealing'
p2263
I4
sS'moved'
p2264
I4
sS'sales'
p2265
I50
sS'general'
p2266
I36
sS'aftershocks'
p2267
I4
sS'as'
p2268
I422
sS'salem'
p2269
I4
sS'at'
p2270
I324
sS'walks'
p2271
I4
sS'senate'
p2272
I8
sS'watched'
p2273
I10
sS'moves'
p2274
I4
sS'operation'
p2275
I2
sS'film'
p2276
I18
sS'fill'
p2277
I2
sS'again'
p2278
I6
sS'consensus'
p2279
I6
sS'receive'
p2280
I2
sS'retiring'
p2281
I2
sS'personnel'
p2282
I2
sS'anti-pocketbook'
p2283
I2
sS'rosen'
p2284
I8
sS'event'
p2285
I2
sS'tight'
p2286
I4
sS'nasa'
p2287
I2
sS'5'
I70
sS'you'
p2288
I62
sS'forcing'
p2289
I2
sS'poor'
p2290
I10
sS'requested'
p2291
I4
sS'congress'
p2292
I4
sS'separate'
p2293
I4
sS'drift'
p2294
I2
sS'brotherhood'
p2295
I2
sS'whistling'
p2296
I2
sS'includes'
p2297
I22
sS'computerized'
p2298
I6
sS'hardware'
p2299
I4
sS'important'
p2300
I14
sS'peak'
p2301
I4
sS'coverage'
p2302
I4
sS'terry'
p2303
I2
sS'included'
p2304
I6
sS'creditor'
p2305
I2
sS'stocks'
p2306
I110
sS'resell'
p2307
I4
sS'pool'
p2308
I2
sS'building'
p2309
I8
sS'booked'
p2310
I2
sS'hurricane'
p2311
I4
sS'mcnamee'
p2312
I4
sS'calls'
p2313
I12
sS'spend'
p2314
I12
sS'omnibus'
p2315
I4
sS'invest'
p2316
I6
sS'apathy'
p2317
I2
sS'speculators'
p2318
I2
sS'principal'
p2319
I4
sS'mimic'
p2320
I2
sS'dramatic'
p2321
I4
sS'u'
I106
sS'boone'
p2322
I2
sS'restricted'
p2323
I2
sS'apparel'
p2324
I2
sS'signalling'
p2325
I2
sS'once'
p2326
I18
sS'resolution'
p2327
I8
sS'robert'
p2328
I2
sS'minister'
p2329
I2
sS'represent'
p2330
I8
sS'all'
p2331
I112
sS'consider'
p2332
I6
sS'yves'
p2333
I2
sS'maximum'
p2334
I8
sS'caused'
p2335
I14
sS'dollar'
p2336
I16
sS'ever-narrowing'
p2337
I4
sS'month'
p2338
I10
sS'unrest'
p2339
I2
sS'cooperative'
p2340
I2
sS'smoking'
p2341
I4
sS'talks'
p2342
I8
sS'archival'
p2343
I4
sS'decisions'
p2344
I2
sS'children'
p2345
I6
sS'berry'
p2346
I4
sS'hunting'
p2347
I2
sS'tv'
p2348
I8
sS'insulate'
p2349
I4
sS'opportunities'
p2350
I2
sS'spirit'
p2351
I4
sS'to'
p2352
I1384
sS'commission'
p2353
I28
sS'present'
p2354
I8
sS'dirty'
p2355
I2
sS'decade-long'
p2356
I2
sS'health'
p2357
I8
sS'lawmakers'
p2358
I6
sS'passed'
p2359
I8
sS'traditionally'
p2360
I2
sS'paying'
p2361
I4
sS'global'
p2362
I2
sS'premium'
p2363
I2
sS'worse'
p2364
I2
sS'egyptian'
p2365
I4
sS'far'
p2366
I14
sS'13-week'
p2367
I2
sS'detention'
p2368
I2
sS'witter'
p2369
I2
sS'portland'
p2370
I2
sS'worst'
p2371
I4
sS'fall'
p2372
I18
sS'sony'
p2373
I8
sS'price-supporting'
p2374
I4
sS'advancers'
p2375
I4
sS'fad'
p2376
I2
sS'trigger'
p2377
I2
sS'treating'
p2378
I4
sS'dutch'
p2379
I4
sS'washing'
p2380
I4
sS'dispute-settlement'
p2381
I2
sS'--'
p2382
I46
sS'louis'
p2383
I2
sS'list'
p2384
I8
sS'mild'
p2385
I2
sS'large'
p2386
I14
sS'adjust'
p2387
I6
sS'small'
p2388
I28
sS'dodger'
p2389
I6
sS'sank'
p2390
I6
sS'trumpeting'
p2391
I2
sS'wedtech'
p2392
I2
sS'broader'
p2393
I6
sS'ten'
p2394
I2
sS'190'
p2395
I6
sS'breakers'
p2396
I20
sS'past'
p2397
I12
sS'nonperforming'
p2398
I4
sS'zero'
p2399
I4
sS'perception'
p2400
I2
sS'perspective'
p2401
I2
sS'lawyer'
p2402
I4
sS'pass'
p2403
I2
sS'further'
p2404
I40
sS'investment'
p2405
I40
sS'returned'
p2406
I4
sS'what'
p2407
I54
sS'stood'
p2408
I2
sS'consumers'
p2409
I10
sS'investing'
p2410
I2
sS'section'
p2411
I6
sS'resume'
p2412
I2
sS'brief'
p2413
I4
sS'gitano'
p2414
I12
sS'kuala'
p2415
I2
sS'crush'
p2416
I6
sS'version'
p2417
I8
sS'scientists'
p2418
I4
sS'certificates'
p2419
I2
sS'learned'
p2420
I6
sS'public'
p2421
I16
sS'contrast'
p2422
I20
sS'turmoil'
p2423
I6
sS'full'
p2424
I24
sS'policies'
p2425
I4
sS'burmah'
p2426
I8
sS'murphy'
p2427
I2
sS'loose'
p2428
I2
sS'diapers'
p2429
I2
sS'hours'
p2430
I20
sS'selective'
p2431
I2
sS'operating'
p2432
I16
sS'excess'
p2433
I4
sS'ignore'
p2434
I2
sS'november'
p2435
I12
sS'strong'
p2436
I18
sS'backlash'
p2437
I2
sS'popeye'
p2438
I2
sS'thrift'
p2439
I8
sS'publisher'
p2440
I8
sS'search'
p2441
I4
sS'ahead'
p2442
I8
sS'losses'
p2443
I34
sS'allows'
p2444
I8
sS'experience'
p2445
I2
sS'prior'
p2446
I6
sS'amount'
p2447
I10
sS'advertising'
p2448
I6
sS'pick'
p2449
I2
sS'action'
p2450
I4
sS'options'
p2451
I48
sS'2163'
p2452
I4
sS'biodegradable'
p2453
I2
sS'omnicare'
p2454
I4
sS'followed'
p2455
I12
sS'family'
p2456
I10
sS'suddenly'
p2457
I8
sS'requiring'
p2458
I2
sS'toyo'
p2459
I2
sS'deals'
p2460
I8
sS'thatcher'
p2461
I2
sS'screens'
p2462
I14
sS'tendered'
p2463
I8
sS'aimed'
p2464
I4
sS'trained'
p2465
I2
sS'manage'
p2466
I4
sS'armed'
p2467
I2
sS'sensors'
p2468
I2
sS'clifford'
p2469
I4
sS'donaldson'
p2470
I4
sS'shareholders'
p2471
I4
sS'eye'
p2472
I4
sS'norwalk'
p2473
I2
sS'donuts'
p2474
I6
sS'one-day'
p2475
I4
sS'petroleum'
p2476
I10
sS'two'
p2477
I80
sS'almost'
p2478
I26
sS'praised'
p2479
I2
sS'widens'
p2480
I2
sS'6'
I90
sS'taken'
p2481
I12
sS'markets'
p2482
I98
sS'authorization'
p2483
I2
sS'more'
p2484
I134
sS'flat'
p2485
I2
sS'fellow'
p2486
I2
sS'knows'
p2487
I2
sS'company'
p2488
I114
sS'waterford'
p2489
I4
sS'emission'
p2490
I2
sS'surprisingly'
p2491
I6
sS'price-depressing'
p2492
I4
sS'controlling'
p2493
I4
sS'stick'
p2494
I2
sS'broke'
p2495
I4
sS'particular'
p2496
I46
sS'known'
p2497
I2
sS'helped'
p2498
I10
sS'none'
p2499
I8
sS'include'
p2500
I12
sS'hour'
p2501
I22
sS'strain'
p2502
I2
sS'union-bidder'
p2503
I2
sS'veterans'
p2504
I6
sS'equation'
p2505
I4
sS'coalition'
p2506
I10
sS'roosevelt'
p2507
I2
sS'815'
p2508
I2
sS'remain'
p2509
I6
sS'sudden'
p2510
I2
sS'nine'
p2511
I18
sS'rubric'
p2512
I2
sS'morgan'
p2513
I10
sS'v'
I2
sS'strategies'
p2514
I8
sS'southwest'
p2515
I2
sS'lubricant'
p2516
I2
sS'purchaser'
p2517
I2
sS'purchases'
p2518
I6
sS'salted'
p2519
I2
sS'synchronized'
p2520
I2
sS'prompting'
p2521
I2
sS'749'
p2522
I2
sS'onslaught'
p2523
I4
sS'ibm-compatible'
p2524
I2
sS'share'
p2525
I128
sS'accept'
p2526
I10
sS'terrible'
p2527
I2
sS'autumn'
p2528
I2
sS'pushed'
p2529
I4
sS'numbers'
p2530
I6
sS'purchased'
p2531
I6
sS'sense'
p2532
I6
sS'fundamentalism'
p2533
I2
sS'sharp'
p2534
I8
sS'robinson'
p2535
I2
sS'charged'
p2536
I10
sS'huge'
p2537
I24
sS'needs'
p2538
I8
sS'answer'
p2539
I2
sS'court'
p2540
I16
sS'goal'
p2541
I6
sS'rather'
p2542
I8
sS'equities'
p2543
I10
sS'acts'
p2544
I4
sS'pressing'
p2545
I2
sS'ledger'
p2546
I2
sS'stayed'
p2547
I4
sS'ava'
p2548
I2
sS'occasionally'
p2549
I4
sS'earnings'
p2550
I40
sS'reject'
p2551
I2
sS'relinquished'
p2552
I2
sS'specialist'
p2553
I4
sS'stir'
p2554
I2
sS'13-pound'
p2555
I4
sS'plant'
p2556
I4
sS'19-member'
p2557
I2
sS'plans'
p2558
I26
sS'perrin'
p2559
I2
sS'derived'
p2560
I4
sS'different'
p2561
I6
sS'reflect'
p2562
I2
sS'replace'
p2563
I2
sS'hispanoil'
p2564
I4
sS'director'
p2565
I8
sS'coming'
p2566
I18
sS'compromise'
p2567
I4
sS'develop'
p2568
I4
sS'inconceivable'
p2569
I2
sS'authentic'
p2570
I2
sS'response'
p2571
I8
sS'nonetheless'
p2572
I2
sS'a'
I1352
sS'short'
p2573
I14
sS'chiefly'
p2574
I2
sS'crowded'
p2575
I2
sS'following'
p2576
I10
sS'quoted'
p2577
I4
sS'doctor'
p2578
I2
sS'overnight'
p2579
I8
sS'wald'
p2580
I4
sS'bashing'
p2581
I2
sS'broadcasting'
p2582
I2
sS'responsibility'
p2583
I4
sS'telephones'
p2584
I2
sS'media'
p2585
I4
sS'banks'
p2586
I12
sS'microprocessors'
p2587
I6
sS'playing'
p2588
I2
sS'replied'
p2589
I2
sS'remnants'
p2590
I2
sS'help'
p2591
I22
sS'face-saving'
p2592
I2
sS'september'
p2593
I4
sS'mission'
p2594
I4
sS'trade'
p2595
I12
sS'held'
p2596
I32
sS'attitude'
p2597
I2
sS'industrial'
p2598
I18
sS'through'
p2599
I48
sS'committee'
p2600
I6
sS'signs'
p2601
I6
sS'hell'
p2602
I2
sS'496'
p2603
I2
sS'suffer'
p2604
I2
sS'avenue'
p2605
I2
sS'its'
p2606
I248
sS'365-day'
p2607
I2
sS'24'
p2608
I14
sS'25'
p2609
I26
sS'26'
p2610
I10
sS'27'
p2611
I18
sS'20'
p2612
I64
sS'21'
p2613
I8
sS'22'
p2614
I24
sS'shortstop'
p2615
I4
sS'energies'
p2616
I2
sS'fined'
p2617
I2
sS'shun'
p2618
I2
sS'29'
p2619
I16
sS'actually'
p2620
I2
sS'late'
p2621
I30
sS'resort'
p2622
I2
sS'reuters'
p2623
I8
sS'disclosed'
p2624
I12
sS'disagrees'
p2625
I2
sS'stephen'
p2626
I2
sS'might'
p2627
I18
sS'fines'
p2628
I2
sS'justice'
p2629
I4
sS'harmed'
p2630
I2
sS'evening'
p2631
I10
sS'return'
p2632
I16
sS'seeking'
p2633
I8
sS'food'
p2634
I10
sS'components'
p2635
I2
sS'number'
p2636
I10
sS'shuttle'
p2637
I2
sS'walls'
p2638
I2
sS'norman'
p2639
I6
sS'belittle'
p2640
I2
sS'speculate'
p2641
I2
sS'three-year-old'
p2642
I2
sS'association'
p2643
I16
sS'intolerably'
p2644
I2
sS'growing'
p2645
I8
sS'inpex'
p2646
I4
sS'coping'
p2647
I2
sS'fully'
p2648
I14
sS'intervene'
p2649
I2
sS'statement'
p2650
I4
sS'transplanting'
p2651
I2
sS'ballot'
p2652
I2
sS'debacle'
p2653
I4
sS'stopped'
p2654
I8
sS'repayment'
p2655
I2
sS'apartheid'
p2656
I2
sS'found'
p2657
I10
sS'telegraph'
p2658
I2
sS'difficult'
p2659
I4
sS'notes'
p2660
I2
sS'indonesia'
p2661
I4
sS'heavy'
p2662
I24
sS'reactions'
p2663
I2
sS'harm'
p2664
I4
sS'everyone'
p2665
I8
sS'england'
p2666
I4
sS'underscores'
p2667
I2
sS'fish'
p2668
I2
sS'hard'
p2669
I4
sS'reduce'
p2670
I14
sS'ganes'
p2671
I2
sS'oil'
p2672
I36
sS'expect'
p2673
I8
sS'quantum'
p2674
I2
sS'advertisers'
p2675
I4
sS'blues'
p2676
I2
sS'beyond'
p2677
I4
sS'randolph'
p2678
I2
sS'insurance'
p2679
I8
sS'britain'
p2680
I2
sS'really'
p2681
I2
sS'flee'
p2682
I2
sS'stands'
p2683
I4
sS'initiatives'
p2684
I2
sS'funding'
p2685
I10
sS'psychology'
p2686
I2
sS'wondered'
p2687
I2
sS'solved'
p2688
I4
sS'electronic'
p2689
I2
sS'blue-chip'
p2690
I18
sS'since'
p2691
I68
sS'outpacing'
p2692
I4
sS'research'
p2693
I12
sS'fha'
p2694
I18
sS'acting'
p2695
I6
sS'safety'
p2696
I4
sS'hill'
p2697
I6
sS'7'
I98
sS'print'
p2698
I8
sS'150th'
p2699
I2
sS'issue'
p2700
I18
sS'plotting'
p2701
I2
sS'egypt'
p2702
I4
sS'nervously'
p2703
I2
sS'assist'
p2704
I4
sS'lump-sum'
p2705
I2
sS'norwich'
p2706
I2
sS'upon'
p2707
I2
sS'friday'
p2708
I164
sS'campeau'
p2709
I4
sS'horse'
p2710
I4
sS'eppel'
p2711
I4
sS'geared'
p2712
I4
sS'extraordinary'
p2713
I2
sS'reason'
p2714
I4
sS'base'
p2715
I6
sS'mmi'
p2716
I4
sS'members'
p2717
I12
sS'put'
p2718
I14
sS'rises'
p2719
I2
sS'beginning'
p2720
I8
sS'speculation'
p2721
I2
sS'recoveries'
p2722
I4
sS'definition'
p2723
I4
sS'dishwasher'
p2724
I4
sS'retained'
p2725
I2
sS'revival'
p2726
I2
sS'launch'
p2727
I4
sS'reinforces'
p2728
I4
sS'computers'
p2729
I8
sS'published'
p2730
I4
sS'excluding'
p2731
I2
sS'braintree'
p2732
I2
sS'american'
p2733
I42
sS'harris'
p2734
I2
sS'circuit'
p2735
I22
sS'dismissed'
p2736
I2
sS'pilots'
p2737
I2
sS'fallen'
p2738
I6
sS'lawsuits'
p2739
I2
sS'bushel'
p2740
I2
sS'copper'
p2741
I20
sS'major'
p2742
I96
sS'feel'
p2743
I12
sS'recruiting'
p2744
I2
sS'netted'
p2745
I4
sS'experts'
p2746
I2
sS'reflected'
p2747
I6
sS'mature'
p2748
I4
sS'well-known'
p2749
I2
sS'unexpected'
p2750
I2
sS'done'
p2751
I10
sS'rails'
p2752
I2
sS'fees'
p2753
I2
sS'mccaw'
p2754
I16
sS'grocery'
p2755
I2
sS'ninth'
p2756
I2
sS'975'
p2757
I2
sS'leverage'
p2758
I4
sS'introduction'
p2759
I2
sS'leading'
p2760
I28
sS'financed'
p2761
I2
sS'smoother'
p2762
I2
sS'moderately'
p2763
I2
sS'180'
p2764
I2
sS'least'
p2765
I14
sS'regulation'
p2766
I4
sS'namibian'
p2767
I8
sS'storm'
p2768
I4
sS'185'
p2769
I2
sS'fought'
p2770
I2
sS'southern'
p2771
I8
sS'recovered'
p2772
I16
sS'listed'
p2773
I2
sS'pare'
p2774
I2
sS'selling'
p2775
I48
sS'option'
p2776
I4
sS'pump'
p2777
I4
sS'relieved'
p2778
I2
sS'exploded'
p2779
I2
sS'ncr'
p2780
I8
sS'park'
p2781
I6
sS'interviewed'
p2782
I4
sS'measurable'
p2783
I2
sS'appreciation'
p2784
I6
sS'part'
p2785
I14
sS'favorable'
p2786
I8
sS'dividend'
p2787
I2
sS'second-biggest'
p2788
I2
sS'believe'
p2789
I10
sS'hollywood'
p2790
I4
sS'carnage'
p2791
I8
sS'king'
p2792
I2
sS'kind'
p2793
I6
sS'b'
I8
sS'rebound'
p2794
I8
sS'unload'
p2795
I2
sS'widuri'
p2796
I2
sS'double'
p2797
I8
sS'anticipate'
p2798
I2
sS'instruction'
p2799
I2
sS'pennsylvania'
p2800
I4
sS'contrary'
p2801
I2
sS'2023'
p2802
I2
sS'fishermen'
p2803
I2
sS'toward'
p2804
I2
sS'midmorning'
p2805
I2
sS'2029'
p2806
I2
sS'sentenced'
p2807
I2
sS'charlotte'
p2808
I2
sS'convenes'
p2809
I2
sS'schrager'
p2810
I2
sS'outstanding'
p2811
I24
sS'adrian'
p2812
I4
sS'heaviest'
p2813
I2
sS'ceiling'
p2814
I10
sS'mitterrand'
p2815
I2
sS'cardillo'
p2816
I2
sS'substantial'
p2817
I2
sS'261'
p2818
I2
sS'precipitating'
p2819
I2
sS'cleaned'
p2820
I6
sS'three-quarters'
p2821
I2
sS'meltdown'
p2822
I2
sS'antonio'
p2823
I2
sS'orders'
p2824
I42
sS'vulnerable'
p2825
I2
sS'darkroom'
p2826
I4
sS'sell'
p2827
I48
sS'ratings'
p2828
I2
sS'wilson'
p2829
I2
sS'rochester'
p2830
I4
sS'geneva'
p2831
I2
sS'superior'
p2832
I4
sS'essentially'
p2833
I6
sS'5-for-24'
p2834
I2
sS'targets'
p2835
I2
sS'onset'
p2836
I2
sS'majority'
p2837
I6
sS'microprocessor'
p2838
I4
sS'internal'
p2839
I2
sS'chairman'
p2840
I22
sS'meese'
p2841
I2
sS'electro-optical'
p2842
I6
sS'ibew'
p2843
I2
sS'rent'
p2844
I2
sS'sales-loss'
p2845
I4
sS'relief'
p2846
I10
sS'left-field'
p2847
I4
sS'added'
p2848
I6
sS'electric'
p2849
I2
sS'warnings'
p2850
I2
sS'reckon'
p2851
I4
sS'goldman'
p2852
I2
sS'swiftly'
p2853
I2
sS'reach'
p2854
I8
sS'kan'
p2855
I4
sS'subsidy'
p2856
I2
sS'react'
p2857
I2
sS'cigarette'
p2858
I4
sS'75'
p2859
I12
sS'74'
p2860
I4
sS'shareholder'
p2861
I2
sS'plan'
p2862
I24
sS'significant'
p2863
I12
sS'70'
p2864
I14
sS'nothing'
p2865
I6
sS'wisdom'
p2866
I2
sS'extremely'
p2867
I2
sS'approved'
p2868
I8
sS'soared'
p2869
I4
sS'stately'
p2870
I2
sS'understands'
p2871
I2
sS'5-1'
p2872
I4
sS'dealers'
p2873
I4
sS'nobuto'
p2874
I2
sS'windows'
p2875
I2
sS'arising'
p2876
I4
sS'clear'
p2877
I2
sS'chicago'
p2878
I32
sS'wichita'
p2879
I2
sS'dimension'
p2880
I2
sS'traditional'
p2881
I2
sS'giving'
p2882
I6
sS'three-month'
p2883
I6
sS'barrel'
p2884
I4
sS'usual'
p2885
I10
sS'institutions'
p2886
I14
sS'painewebber'
p2887
I14
sS'thomas'
p2888
I2
sS'particularly'
p2889
I14
sS'rebels'
p2890
I4
sS'gold'
p2891
I28
sS'gates'
p2892
I2
sS'swelling'
p2893
I4
sS'664'
p2894
I2
sS'celebrities'
p2895
I2
sS'hugging'
p2896
I2
sS'defended'
p2897
I6
sS'nasdaq'
p2898
I4
sS'session'
p2899
I24
sS'businesses'
p2900
I6
sS'excessive'
p2901
I8
sS'fine'
p2902
I2
sS'find'
p2903
I2
sS'cellular-telephone'
p2904
I2
sS'impact'
p2905
I12
sS'giant'
p2906
I12
sS'ho-hum'
p2907
I2
sS'nevertheless'
p2908
I2
sS'northern'
p2909
I4
sS'music'
p2910
I2
sS'merger'
p2911
I4
sS'nervous'
p2912
I4
sS'heavily'
p2913
I4
sS'cataclysms'
p2914
I2
sS'destabilize'
p2915
I4
sS'34468'
p2916
I2
sS'failed'
p2917
I6
sS'flights'
p2918
I12
sS'surveyed'
p2919
I6
sS'pretty'
p2920
I4
sS'equity'
p2921
I18
sS'override'
p2922
I4
sS'8'
I94
sS'circle'
p2923
I2
sS'ruiz'
p2924
I4
sS'giants'
p2925
I18
sS'batted'
p2926
I8
sS'his'
p2927
I78
sS'hit'
p2928
I24
sS'gains'
p2929
I24
sS'meanwhile'
p2930
I64
sS'tcr'
p2931
I4
sS'express'
p2932
I4
sS'brundtland'
p2933
I2
sS'financing'
p2934
I26
sS'country'
p2935
I4
sS'marks'
p2936
I2
sS'famous'
p2937
I2
sS'grew'
p2938
I14
sS'actions'
p2939
I4
sS'closely'
p2940
I26
sS'reporters'
p2941
I2
sS'during'
p2942
I50
sS'intensify'
p2943
I2
sS'him'
p2944
I10
sS'enlargers'
p2945
I4
sS'elf'
p2946
I2
sS'twiggy-looking'
p2947
I4
sS'catcher'
p2948
I2
sS'bedlam'
p2949
I2
sS'generally'
p2950
I12
sS'doubled'
p2951
I6
sS'six-month'
p2952
I2
sS'banking'
p2953
I18
sS'interim'
p2954
I4
sS'common'
p2955
I16
sS'withdrawal'
p2956
I2
sS'creates'
p2957
I2
sS'accounting'
p2958
I4
sS'wrote'
p2959
I4
sS'cry'
p2960
I2
sS'bars'
p2961
I4
sS'set'
p2962
I26
sS'ses'
p2963
I4
sS'dump'
p2964
I2
sS'supporting'
p2965
I4
sS'overwhelm'
p2966
I4
sS'declines'
p2967
I10
sS'activists'
p2968
I2
sS'startup'
p2969
I2
sS'314'
p2970
I2
sS'see'
p2971
I24
sS'individual'
p2972
I6
sS'sec'
p2973
I4
sS'are'
p2974
I160
sS'plummeted'
p2975
I4
sS'receivership'
p2976
I2
sS'tender'
p2977
I18
sS'close'
p2978
I48
sS'comfort'
p2979
I2
sS'declined'
p2980
I30
sS'repairs'
p2981
I4
sS'lauren'
p2982
I2
sS'spirits'
p2983
I2
sS'expert'
p2984
I2
sS'forlorn'
p2985
I2
sS'currently'
p2986
I10
sS'diluted'
p2987
I4
sS'slapped'
p2988
I2
sS'debat'
p2989
I2
sS'fans'
p2990
I2
sS'won'
p2991
I2
sS'various'
p2992
I6
sS'probably'
p2993
I18
sS'conditions'
p2994
I12
sS'leveraging'
p2995
I2
sS'europe'
p2996
I10
sS'home-team'
p2997
I2
sS'creating'
p2998
I6
sS'longley'
p2999
I2
sS'targeted'
p3000
I8
sS'dividends'
p3001
I6
sS'sold'
p3002
I12
sS'sole'
p3003
I4
sS'confiscated'
p3004
I4
sS'three-party'
p3005
I2
sS'opposition'
p3006
I8
sS'franchise'
p3007
I4
sS'plutonium-powered'
p3008
I4
sS'slated'
p3009
I2
sS'prelude'
p3010
I2
sS'legislature'
p3011
I8
sS'league'
p3012
I12
sS'c'
I16
sS'feeling'
p3013
I4
sS'last'
p3014
I80
sS'license'
p3015
I4
sS'restaurant'
p3016
I2
sS'leipzig'
p3017
I2
sS'expiring'
p3018
I2
sS'barely'
p3019
I2
sS'dampened'
p3020
I2
sS'foreign'
p3021
I16
sS'perrier'
p3022
I2
sS'memotec'
p3023
I14
sS'kamp'
p3024
I12
sS'acquisition'
p3025
I18
sS'residential'
p3026
I2
sS'long-term'
p3027
I10
sS'focused'
p3028
I6
sS'bond'
p3029
I20
sS'whole'
p3030
I12
sS'baltimore'
p3031
I6
sS'liked'
p3032
I4
sS'regulates'
p3033
I2
sS'point'
p3034
I30
sS'loan'
p3035
I22
sS'recycling'
p3036
I2
sS'community'
p3037
I6
sS'galileo'
p3038
I4
sS'sween'
p3039
I4
sS'simply'
p3040
I2
sS'shutdown'
p3041
I8
sS'scottish'
p3042
I8
sS'throughout'
p3043
I10
sS'expensive'
p3044
I2
sS'runups'
p3045
I4
sS'platinum'
p3046
I4
sS'decline'
p3047
I44
sS'described'
p3048
I2
sS'willingness'
p3049
I6
sS'divest'
p3050
I4
sS'arrest'
p3051
I4
sS'monthly'
p3052
I4
sS'create'
p3053
I8
sS'political'
p3054
I8
sS'emblems'
p3055
I2
sS'strategy'
p3056
I8
sS'runner'
p3057
I4
sS'reduction'
p3058
I8
sS'pa'
p3059
I4
sS'collected'
p3060
I2
sS'threaten'
p3061
I4
sS'orioles'
p3062
I2
sS'territory'
p3063
I4
sS'meeting'
p3064
I6
sS'attractive'
p3065
I2
sS'firm'
p3066
I30
sS'dialogue'
p3067
I4
sS'partly'
p3068
I8
sS'nabisco'
p3069
I4
sS'regroup'
p3070
I4
sS'itoh'
p3071
I4
sS'citizen'
p3072
I2
sS'gas'
p3073
I10
sS'39'
p3074
I8
sS'else'
p3075
I16
sS'fund'
p3076
I20
sS'whatever'
p3077
I6
sS'understand'
p3078
I2
sS'disruptive'
p3079
I2
sS'bidding'
p3080
I6
sS'demand'
p3081
I14
sS'prices'
p3082
I104
sS'spearheaded'
p3083
I2
sS'222'
p3084
I6
sS'labor-shortage'
p3085
I2
sS'pact'
p3086
I4
sS'trojan'
p3087
I4
sS'stolen'
p3088
I4
sS'uncertain'
p3089
I4
sS'look'
p3090
I18
sS'steinbach'
p3091
I8
sS'straight'
p3092
I2
sS'civility'
p3093
I2
sS'budget'
p3094
I16
sS'governor'
p3095
I2
sS'kodak'
p3096
I6
sS'technical'
p3097
I12
sS'while'
p3098
I58
sS'replaced'
p3099
I10
sS'behavior'
p3100
I8
sS'shift'
p3101
I2
sS'sheets'
p3102
I4
sS'di'
p3103
I2
sS'mitchell'
p3104
I4
sS'manner'
p3105
I4
sS'jpi'
p3106
I2
sS'real'
p3107
I14
sS'larger'
p3108
I6
sS'un-advertisers'
p3109
I4
sS'voters'
p3110
I10
sS'cents'
p3111
I72
sS'guilty'
p3112
I2
sS'motors'
p3113
I6
sS'alaska'
p3114
I4
sS'disappointing'
p3115
I2
sS'itself'
p3116
I12
sS'owes'
p3117
I2
sS'ready'
p3118
I6
sS'coca-cola'
p3119
I2
sS'increased'
p3120
I4
sS'cuisine'
p3121
I2
sS'confirms'
p3122
I2
sS'italy'
p3123
I8
sS'anymore'
p3124
I4
sS'barilla'
p3125
I2
sS'875'
p3126
I4
sS'big-stock'
p3127
I2
sS'fading'
p3128
I2
sS'philadelphia-based'
p3129
I2
sS'reconstructed'
p3130
I2
sS'2745'
p3131
I4
sS'virtually'
p3132
I2
sS'widely'
p3133
I8
sS'9'
I92
sS'products'
p3134
I20
sS'dozen'
p3135
I4
sS'higher'
p3136
I18
sS'development'
p3137
I10
sS'used'
p3138
I10
sS'temporary'
p3139
I16
sS'affairs'
p3140
I6
sS'cigar'
p3141
I2
sS'criminal'
p3142
I4
sS'yesterday'
p3143
I114
sS'flows'
p3144
I2
sS'desks'
p3145
I6
sS'countersued'
p3146
I2
sS'levels'
p3147
I2
sS'moving'
p3148
I10
sS'purpose'
p3149
I2
sS'004'
p3150
I4
sS'robust'
p3151
I2
sS'third-period'
p3152
I2
sS'recent'
p3153
I24
sS'frozen'
p3154
I8
sS'lower'
p3155
I32
sS'task'
p3156
I2
sS'poland'
p3157
I6
sS'spent'
p3158
I4
sS'obviously'
p3159
I6
sS'person'
p3160
I2
sS'priced'
p3161
I4
sS'edge'
p3162
I2
sS'involves'
p3163
I2
sS'withdraw'
p3164
I2
sS'y'
I4
sS'doyle'
p3165
I2
sS'bounced'
p3166
I2
sS'lin'
p3167
I14
sS'sumat'
p3168
I4
sS'2965'
p3169
I2
sS'coup'
p3170
I4
sS'bondholders'
p3171
I4
sS'junk-bond'
p3172
I4
sS'red-haired'
p3173
I4
sS'sound'
p3174
I2
sS'settlements'
p3175
I4
sS'salve'
p3176
I2
sS'quarters'
p3177
I2
sS'three-run'
p3178
I4
sS'shape'
p3179
I2
sS'openly'
p3180
I8
sS'using'
p3181
I8
sS'retired'
p3182
I2
sS'alternative'
p3183
I2
sS'plains'
p3184
I4
sS'unto'
p3185
I2
sS'ban'
p3186
I14
sS'wage'
p3187
I8
sS'cut'
p3188
I4
sS'colder'
p3189
I4
sS'also'
p3190
I94
sS'disappointed'
p3191
I2
sS'workers'
p3192
I14
sS'advertisements'
p3193
I2
sS'calor'
p3194
I4
sS'contractor'
p3195
I2
sS'signals'
p3196
I2
sS'source'
p3197
I2
sS'stock-market'
p3198
I4
sS'parents'
p3199
I8
sS'questioned'
p3200
I4
sS'lows'
p3201
I4
sS'boardroom'
p3202
I2
sS'guarantees'
p3203
I12
sS'profitably'
p3204
I2
sS'remaining'
p3205
I16
sS'surprised'
p3206
I2
sS'build'
p3207
I2
sS'brushed'
p3208
I2
sS'customers'
p3209
I10
sS'australia'
p3210
I4
sS'march'
p3211
I16
sS'demands'
p3212
I2
sS'big'
p3213
I78
sS'bid'
p3214
I18
sS'chapter'
p3215
I2
sS'libyan'
p3216
I4
sS'game'
p3217
I18
sS'hitters'
p3218
I2
sS'private'
p3219
I28
sS'foreigners'
p3220
I2
sS'emergence'
p3221
I2
sS'agfa'
p3222
I6
sS'unicorp'
p3223
I4
sS'projects'
p3224
I8
sS'helpful'
p3225
I2
sS'imposed'
p3226
I4
sS'd'
I8
sS'follows'
p3227
I2
sS'interestingly'
p3228
I2
sS'pounds'
p3229
I2
sS'rifkin'
p3230
I2
sS'separately'
p3231
I4
sS'individuals'
p3232
I4
sS'depositary'
p3233
I4
sS'popular'
p3234
I2
sS'decrease'
p3235
I4
sS'healthy'
p3236
I4
sS'harlem'
p3237
I2
sS'economic-restructuring'
p3238
I2
sS'tax-exempts'
p3239
I2
sS'stagnating'
p3240
I4
sS'often'
p3241
I2
sS'absolutely'
p3242
I4
sS'suspension'
p3243
I2
sS'some'
p3244
I72
sS'back'
p3245
I24
sS'phone'
p3246
I2
sS'delegation'
p3247
I4
sS'strongest'
p3248
I2
sS'economic'
p3249
I14
sS'800-line'
p3250
I2
sS'trendy'
p3251
I2
sS'scuttled'
p3252
I2
sS'newsletter'
p3253
I4
sS'amicable'
p3254
I2
sS'ozone'
p3255
I2
sS'gradually'
p3256
I2
sS'scale'
p3257
I2
sS'compressors'
p3258
I2
sS'decision'
p3259
I4
sS'though'
p3260
I16
sS'novelty'
p3261
I2
sS'per'
p3262
I2
sS'prop'
p3263
I4
sS'solidified'
p3264
I2
sS'alfred'
p3265
I2
sS'eliminate'
p3266
I10
sS'tends'
p3267
I4
sS'peg'
p3268
I8
sS't'
I6
sS'be'
p3269
I200
sS'ilford'
p3270
I6
sS'measures'
p3271
I2
sS'run'
p3272
I24
sS'300'
p3273
I4
sS'montreal-based'
p3274
I2
sS'processing'
p3275
I2
sS'continuing'
p3276
I10
sS'use'
p3277
I18
sS'refused'
p3278
I6
sS'account-churning'
p3279
I2
sS'500-stock'
p3280
I4
sS'step'
p3281
I10
sS'fee'
p3282
I2
sS'bp'
p3283
I4
sS'nowhere'
p3284
I4
sS'lasts'
p3285
I2
sS'output'
p3286
I2
sS'teen-agers'
p3287
I4
sS'article'
p3288
I4
sS'baskets'
p3289
I2
sS'by'
p3290
I330
sS'vivid'
p3291
I4
sS'dormant'
p3292
I2
sS'guber-peters'
p3293
I8
sS'pipeline'
p3294
I2
sS'goods'
p3295
I4
sS'wrecking'
p3296
I4
sS'anything'
p3297
I14
sS'most'
p3298
I48
sS'bestseller'
p3299
I4
sS'range'
p3300
I4
sS'ounce'
p3301
I10
sS'together'
p3302
I8
sS'consequently'
p3303
I6
sS'block'
p3304
I10
sS'72'
p3305
I8
sS'seeing'
p3306
I4
sS'procter'
p3307
I4
sS'into'
p3308
I44
sS'within'
p3309
I16
sS'retailer'
p3310
I4
sS'nonperformers'
p3311
I4
sS'predictions'
p3312
I4
sS'currency'
p3313
I2
sS'services'
p3314
I10
sS'appropriate'
p3315
I4
sS'primarily'
p3316
I2
sS'repaid'
p3317
I2
sS'contributor'
p3318
I2
sS'lesson'
p3319
I6
sS'inventories'
p3320
I12
sS'rolls'
p3321
I2
sS'intraday'
p3322
I2
sS'bankruptcy'
p3323
I2
sS'behaving'
p3324
I4
sS'statistics'
p3325
I4
sS'spending'
p3326
I14
sS'bargaining'
p3327
I2
sS'fast'
p3328
I4
sS'consultation'
p3329
I2
sS'bayer'
p3330
I2
sS'79'
p3331
I4
sS'nikkei'
p3332
I10
sS'forward'
p3333
I4
sS'conceivable'
p3334
I2
sS'rhetorical'
p3335
I2
sS'mounting'
p3336
I2
sS'manufacture'
p3337
I4
sS'mundane'
p3338
I2
sS'plunge'
p3339
I32
sS'atlantis'
p3340
I2
sS'elsewhere'
p3341
I4
sS'great'
p3342
I4
sS'collapsed'
p3343
I2
sS'tally'
p3344
I4
sS'specialty'
p3345
I2
sS'boys'
p3346
I2
sS'atlantic'
p3347
I2
sS'authority'
p3348
I8
sS'filed'
p3349
I4
sS'hopes'
p3350
I6
sS'subsidiary'
p3351
I4
sS'line'
p3352
I16
sS'considerable'
p3353
I4
sS'raising'
p3354
I6
sS'5-0'
p3355
I2
sS'cia'
p3356
I2
sS'entry'
p3357
I2
sS'fdic'
p3358
I4
sS'up'
p3359
I136
sS'us'
p3360
I14
sS'maturity'
p3361
I2
sS"'re"
p3362
I20
sS'cautiously'
p3363
I2
sS'reflects'
p3364
I4
sS'last-minute'
p3365
I2
sS'participants'
p3366
I2
sS'nationalists'
p3367
I2
sS'111'
p3368
I2
sS'fried'
p3369
I8
sS'groove'
p3370
I2
sS'called'
p3371
I14
sS'471'
p3372
I4
sS'bell'
p3373
I2
sS'isao'
p3374
I2
sS'sometimes'
p3375
I2
sS'ordered'
p3376
I4
sS'interspec'
p3377
I2
sS'flow'
p3378
I2
sS'flocked'
p3379
I2
sS'influence'
p3380
I2
sS'metals'
p3381
I2
sS'eye-catching'
p3382
I2
sS'divisive'
p3383
I2
sS'single'
p3384
I8
sS'associates'
p3385
I4
sS'field'
p3386
I8
sS'rally'
p3387
I54
sS'modeling'
p3388
I2
sS'prevail'
p3389
I2
sS'kidney'
p3390
I2
sS'cotton'
p3391
I4
sS'959'
p3392
I2
sS'supportive'
p3393
I2
sS'tentative'
p3394
I4
sS'amounts'
p3395
I4
sS'dashed'
p3396
I6
sS'image'
p3397
I2
sS'overseeing'
p3398
I4
sS'hot-cold'
p3399
I2
sS'competitors'
p3400
I4
sS'somerset'
p3401
I4
sS'post-crash'
p3402
I2
sS'points'
p3403
I94
sS'electrical'
p3404
I4
sS'transport'
p3405
I4
sS'income'
p3406
I40
sS'department'
p3407
I32
sS'pesticides'
p3408
I2
sS'1967'
p3409
I2
sS'500-share'
p3410
I4
sS'draw'
p3411
I2
sS'marxist'
p3412
I2
sS'users'
p3413
I4
sS'reportedly'
p3414
I2
sS'gross'
p3415
I6
sS'kansas'
p3416
I4
sS'problems'
p3417
I20
sS'visits'
p3418
I2
sS'lunging'
p3419
I2
sS'regulations'
p3420
I4
sS'rise'
p3421
I28
sS'allowing'
p3422
I10
sS'lunch'
p3423
I8
sS'metal'
p3424
I6
sS'sides'
p3425
I2
sS'rallied'
p3426
I6
sS'independently'
p3427
I2
sS'land'
p3428
I2
sS'e'
I2
sS'parallel-computing'
p3429
I4
sS'vice'
p3430
I4
sS'age'
p3431
I4
sS'backed'
p3432
I10
sS'bankers'
p3433
I6
sS'notion'
p3434
I2
sS'watertown'
p3435
I2
sS'pamphlets'
p3436
I2
sS'summit'
p3437
I2
sS'salvador'
p3438
I2
sS'columbus'
p3439
I2
sS'requires'
p3440
I2
sS'having'
p3441
I8
sS'ribbies'
p3442
I2
sS'code'
p3443
I4
sS'wire'
p3444
I4
sS'scooped'
p3445
I2
sS'issued'
p3446
I4
sS'results'
p3447
I20
sS'arranging'
p3448
I4
sS'angeles-based'
p3449
I4
sS'edt'
p3450
I6
sS'go'
p3451
I20
sS'adjustment'
p3452
I2
sS'issues'
p3453
I28
sS'seemed'
p3454
I12
sS'26-week'
p3455
I2
sS'simon'
p3456
I6
sS'rtc'
p3457
I12
sS'longstanding'
p3458
I2
sS'disposal'
p3459
I6
sS'concerned'
p3460
I6
sS'seng'
p3461
I2
sS'send'
p3462
I6
sS'nose'
p3463
I2
sS'anti-abortion'
p3464
I2
sS'helps'
p3465
I4
sS'stable'
p3466
I2
sS'popularity'
p3467
I2
sS'maryland'
p3468
I2
sS'hints'
p3469
I2
sS'resources'
p3470
I8
sS'jurisdiction'
p3471
I2
sS'proctor'
p3472
I2
sS'tulsa'
p3473
I2
sS'outside'
p3474
I2
sS'floodlights'
p3475
I4
sS'portfolios'
p3476
I6
sS'continues'
p3477
I2
sS'reopened'
p3478
I6
sS'wave'
p3479
I8
sS'temporary-help'
p3480
I4
sS'asset'
p3481
I8
sS'wishes'
p3482
I2
sS'putting'
p3483
I4
sS'signed'
p3484
I2
sS'cellular'
p3485
I2
sS'york-based'
p3486
I6
sS'infrared'
p3487
I2
sS'continued'
p3488
I12
sS'entire'
p3489
I4
sS'real-estate'
p3490
I4
sS'meant'
p3491
I2
sS'positions'
p3492
I16
sS'button'
p3493
I4
sS'michael'
p3494
I4
sS'fewer'
p3495
I4
sS'leader'
p3496
I8
sS'try'
p3497
I4
sS'tunnel'
p3498
I2
sS'olav'
p3499
I2
sS'three-judge'
p3500
I2
sS'kit'
p3501
I8
sS'gauge'
p3502
I2
sS'noted'
p3503
I2
sS'concluded'
p3504
I4
sS'smaller'
p3505
I10
sS'arbitragers'
p3506
I8
sS'cfc'
p3507
I2
sS'two-tone'
p3508
I4
sS'video'
p3509
I4
sS'concludes'
p3510
I2
sS'wheat'
p3511
I2
sS'growers'
p3512
I2
sS'makers'
p3513
I18
sS'depression'
p3514
I2
sS'2601'
p3515
I2
sS'brokered'
p3516
I2
sS'index'
p3517
I120
sS'staffers'
p3518
I10
sS'power'
p3519
I10
sS'rate'
p3520
I30
sS'lehman'
p3521
I16
sS'1-for-17'
p3522
I4
sS'schedule'
p3523
I4
sS'labeled'
p3524
I4
sS'expressed'
p3525
I2
sS'enjoyed'
p3526
I4
sS'volatile'
p3527
I6
sS'gubernatorial'
p3528
I2
sS'capital'
p3529
I28
sS'incidents'
p3530
I4
sS'firms'
p3531
I42
sS'dizzying'
p3532
I4
sS'completion'
p3533
I2
sS'led'
p3534
I8
sS'chose'
p3535
I2
sS'exchange'
p3536
I102
sS'respectively'
p3537
I2
sS'gathered'
p3538
I4
sS'pushing'
p3539
I4
sS'commercial'
p3540
I20
sS'indicator'
p3541
I8
sS'444'
p3542
I2
sS'fla'
p3543
I2
sS'northeast'
p3544
I2
sS'let'
p3545
I10
sS'others'
p3546
I8
sS'safer'
p3547
I2
sS'bode'
p3548
I2
sS'widening'
p3549
I4
sS'firmed'
p3550
I6
sS'eskandarian'
p3551
I6
sS'38'
p3552
I8
sS'uneasy'
p3553
I8
sS'33'
p3554
I12
sS'32'
p3555
I22
sS'31'
p3556
I26
sS'30'
p3557
I68
sS'37'
p3558
I8
sS'narrowness'
p3559
I4
sS'35'
p3560
I12
sS'34'
p3561
I6
sS'engine'
p3562
I2
sS'640'
p3563
I2
sS'lautenberg'
p3564
I4
sS'survey'
p3565
I4
sS'647'
p3566
I4
sS'defeat'
p3567
I2
sS'opinion'
p3568
I2
sS'makes'
p3569
I12
sS'maker'
p3570
I16
sS'grower'
p3571
I2
sS'settled'
p3572
I6
sS'reds'
p3573
I2
sS'examining'
p3574
I2
sS'named'
p3575
I4
sS'vibration-control'
p3576
I2
sS'foresee'
p3577
I2
sS'clark'
p3578
I2
sS'deputy'
p3579
I2
sS'atrocities'
p3580
I4
sS'win'
p3581
I4
sS'black-and-white'
p3582
I34
sS'whacky'
p3583
I2
sS'clara'
p3584
I2
sS'wis'
p3585
I6
sS'clout'
p3586
I2
sS'diversion'
p3587
I2
sS'conviction'
p3588
I2
sS'sachs'
p3589
I2
sS'counsels'
p3590
I4
sS'motor'
p3591
I2
sS'contracting'
p3592
I4
sS'scandal'
p3593
I4
sS'resolutions'
p3594
I2
sS'headed'
p3595
I4
sS'announced'
p3596
I14
sS'standing'
p3597
I2
sS'confidence'
p3598
I4
sS'cheered'
p3599
I4
sS'from'
p3600
I332
sS'links'
p3601
I4
sS'certificate'
p3602
I2
sS'freedoms'
p3603
I2
sS'remains'
p3604
I14
sS'illegal'
p3605
I2
sS'child-care'
p3606
I2
sS'variable-rate'
p3607
I6
sS'next'
p3608
I22
sS'few'
p3609
I38
sS'circumstances'
p3610
I2
sS'doubt'
p3611
I4
sS'reviving'
p3612
I2
sS'year-ago'
p3613
I14
sS'butler'
p3614
I6
sS'themselves'
p3615
I4
sS'stage'
p3616
I2
sS'midday'
p3617
I6
sS'sort'
p3618
I6
sS'on'
p3619
I450
sS'started'
p3620
I12
sS'becomes'
p3621
I4
sS'rittlemann'
p3622
I4
sS'factor'
p3623
I8
sS'benchmark'
p3624
I10
sS'stone'
p3625
I4
sS'assistants'
p3626
I4
sS'opposing'
p3627
I2
sS'sharply'
p3628
I20
sS'baby'
p3629
I2
sS'ncnb'
p3630
I16
sS'billed'
p3631
I2
sS'pickens'
p3632
I2
sS'starter'
p3633
I4
sS'carried'
p3634
I2
sS'escaped'
p3635
I2
sS'account'
p3636
I16
sS'stabilized'
p3637
I4
sS'extension'
p3638
I4
sS'sanctions'
p3639
I4
sS'this'
p3640
I148
sS'challenge'
p3641
I2
sS'clients'
p3642
I12
sS'oct'
p3643
I26
sS'recession'
p3644
I2
sS'obvious'
p3645
I2
sS'thin'
p3646
I4
sS'nostalgic'
p3647
I4
sS'meet'
p3648
I4
sS'closing'
p3649
I4
sS'averages'
p3650
I4
sS'institute'
p3651
I4
sS'performed'
p3652
I4
sS'control'
p3653
I8
sS'slid'
p3654
I10
sS'weaker'
p3655
I10
sS'tap'
p3656
I2
sS'patron'
p3657
I4
sS'do'
p3658
I46
sS'process'
p3659
I16
sS'second-year'
p3660
I4
sS'proportions'
p3661
I2
sS'authorized'
p3662
I2
sS'tax'
p3663
I10
sS'purposes'
p3664
I2
sS'hauser'
p3665
I2
sS'high'
p3666
I30
sS'effectively'
p3667
I2
sS'reserves'
p3668
I8
sS'hilton'
p3669
I2
sS'shipping'
p3670
I4
sS'slip'
p3671
I2
sS'kremlin'
p3672
I2
sS'sought'
p3673
I4
sS'confirmed'
p3674
I6
sS'reynolds'
p3675
I2
sS'weaken'
p3676
I2
sS'united'
p3677
I8
sS'syndrome'
p3678
I2
sS'democracy'
p3679
I6
sS'pure'
p3680
I2
sS'clothing'
p3681
I2
sS'six'
p3682
I16
sS'struggles'
p3683
I2
sS'traders'
p3684
I52
sS'instead'
p3685
I16
sS'warner'
p3686
I4
sS'panic'
p3687
I32
sS'ever-present'
p3688
I2
sS'stock'
p3689
I202
sS'alliant'
p3690
I10
sS'administrator'
p3691
I2
sS'farm'
p3692
I2
sS'space'
p3693
I2
sS'peace'
p3694
I6
sS'collection'
p3695
I2
sS'halted'
p3696
I14
sS'steeply'
p3697
I2
sS'ties'
p3698
I4
sS'signaled'
p3699
I6
sS'shv'
p3700
I6
sS'autograph'
p3701
I6
sS'boeing'
p3702
I2
sS'fixed-income'
p3703
I4
sS'manpower'
p3704
I8
sS'light'
p3705
I2
sS'pre-set'
p3706
I4
sS'sit'
p3707
I2
sS'lines'
p3708
I2
sS'commodities'
p3709
I2
sS'chief'
p3710
I22
sS'quotron'
p3711
I2
sS'allow'
p3712
I8
sS'intellectuals'
p3713
I4
sS'subsequently'
p3714
I12
sS'software'
p3715
I2
sS'counted'
p3716
I2
sS'fastest'
p3717
I4
sS'cease-fire'
p3718
I2
sS'holds'
p3719
I6
sS'producer'
p3720
I10
sS'institutional'
p3721
I12
sS'in-house'
p3722
I2
sS'move'
p3723
I12
sS'2657'
p3724
I6
sS'quietly'
p3725
I6
sS'mart'
p3726
I2
sS'produced'
p3727
I2
sS'132'
p3728
I2
sS'130'
p3729
I6
sS'including'
p3730
I36
sS'looks'
p3731
I2
sS'139'
p3732
I2
sS'138'
p3733
I2
sS'year-earlier'
p3734
I14
sS'boosts'
p3735
I4
sS'industries'
p3736
I2
sS'delay'
p3737
I10
sS'banknote'
p3738
I26
sS'brook'
p3739
I2
sS'anti-nuclear'
p3740
I2
sS'labor'
p3741
I4
sS'permanent'
p3742
I6
sS'degrees'
p3743
I4
sS'ls'
p3744
I2
sS'stalled'
p3745
I4
sS'puerto'
p3746
I2
sS'alexander'
p3747
I2
sS'crowds'
p3748
I2
sS'warrants'
p3749
I4
sS'irish'
p3750
I10
sS'crash'
p3751
I30
sS'greater'
p3752
I6
sS'murakami'
p3753
I2
sS'washington'
p3754
I24
sS'runs'
p3755
I18
sS'survivable'
p3756
I2
sS'mention'
p3757
I2
sS'resolve'
p3758
I4
sS'hands'
p3759
I12
sS'bar'
p3760
I4
sS'republican'
p3761
I2
sS'investor'
p3762
I8
sS'day'
p3763
I62
sS'capital-gains'
p3764
I2
sS'worlds'
p3765
I6
sS'storyboard'
p3766
I4
sS'airports'
p3767
I8
sS'entitling'
p3768
I2
sS'auto'
p3769
I2
sS'ex-hurler'
p3770
I2
sS'warned'
p3771
I2
sS'university'
p3772
I4
sS'eased'
p3773
I4
sS'yasuda'
p3774
I6
sS'write-down'
p3775
I2
sS'merge'
p3776
I6
sS'slide'
p3777
I14
sS'magnitude'
p3778
I4
sS'sim'
p3779
I14
sS'truth'
p3780
I2
sS'beneath'
p3781
I4
sS'bills'
p3782
I10
sS'experienced'
p3783
I2
sS'treads'
p3784
I4
sS'studios'
p3785
I4
sS'lobbies'
p3786
I2
sS'thwart'
p3787
I2
sS'jones'
p3788
I36
sS'147'
p3789
I2
sS'recessions'
p3790
I6
sS'chunk'
p3791
I2
sS'resurging'
p3792
I2
sS'700'
p3793
I4
sS'product'
p3794
I12
sS'related'
p3795
I12
sS'constitute'
p3796
I2
sS'deficiency'
p3797
I2
sS'88'
p3798
I16
sS'89'
p3799
I4
sS'lobbied'
p3800
I4
sS'remove'
p3801
I2
sS'measure'
p3802
I10
sS'82'
p3803
I12
sS'our'
p3804
I28
sS'80'
p3805
I18
sS'81'
p3806
I4
sS'satisfied'
p3807
I4
sS'special'
p3808
I6
sS'out'
p3809
I90
sS'matt'
p3810
I2
sS'sunlight'
p3811
I2
sS'fundamentally'
p3812
I2
sS"'"
I46
sS'bag'
p3813
I2
sS'34903'
p3814
I2
sS'affordability'
p3815
I2
sS'141'
p3816
I2
sS'416'
p3817
I6
sS'settlement'
p3818
I2
sS'critics'
p3819
I2
sS'dominated'
p3820
I2
sS'exporting'
p3821
I2
sS'cwa'
p3822
I6
sS'insolvent'
p3823
I2
sS'postpone'
p3824
I2
sS'cause'
p3825
I6
sS'integrated'
p3826
I4
sS'red'
p3827
I18
sS'thrifts'
p3828
I8
sS'hut'
p3829
I4
sS'shut'
p3830
I10
sS'apple-pie'
p3831
I2
sS'approached'
p3832
I2
sS'580'
p3833
I2
sS'unwieldy'
p3834
I2
sS'frank'
p3835
I6
sS'activity'
p3836
I4
sS'mississippi'
p3837
I2
sS'clarify'
p3838
I2
sS'regulators'
p3839
I6
sS'york'
p3840
I72
sS'trends'
p3841
I2
sS'conservatives'
p3842
I4
sS'regulatory'
p3843
I6
sS'moody'
p3844
I2
sS'receipts'
p3845
I4
sS'resumed'
p3846
I4
sS'allies'
p3847
I2
sS'stearns'
p3848
I10
sS'g'
I12
sS'applications'
p3849
I2
sS'could'
p3850
I64
sS'florida'
p3851
I8
sS'times'
p3852
I14
sS'conversation'
p3853
I4
sS'ratification'
p3854
I2
sS'noncorrosive'
p3855
I2
sS'ltd'
p3856
I26
sS'davis'
p3857
I2
sS'retain'
p3858
I6
sS'retail'
p3859
I16
sS'south'
p3860
I16
sS'designed'
p3861
I4
sS'prospective'
p3862
I2
sS'tacked'
p3863
I4
sS'bancoklahoma'
p3864
I2
sS'491'
p3865
I4
sS'450'
p3866
I2
sS'powerful'
p3867
I2
sS'transports'
p3868
I2
sS'owned'
p3869
I10
sS'457'
p3870
I4
sS'improvements'
p3871
I6
sS'hurdle'
p3872
I4
sS'spots'
p3873
I8
sS'such'
p3874
I78
sS'reached'
p3875
I14
sS'homers'
p3876
I2
sS'noticed'
p3877
I4
sS'quality'
p3878
I14
sS'buoyed'
p3879
I2
sS'legislative'
p3880
I4
sS'pershare'
p3881
I2
sS'management'
p3882
I18
sS'publication'
p3883
I2
sS'start'
p3884
I6
sS'data'
p3885
I2
sS'achieved'
p3886
I2
sS'system'
p3887
I12
sS'adopted'
p3888
I6
sS'priority'
p3889
I2
sS'their'
p3890
I112
sS'sumatra'
p3891
I16
sS'intermediate'
p3892
I4
sS'minisupercomputers'
p3893
I2
sS'intelligence'
p3894
I2
sS'gaseous'
p3895
I2
sS'rated'
p3896
I2
sS'behaved'
p3897
I8
sS'final'
p3898
I10
sS'516'
p3899
I4
sS'interests'
p3900
I16
sS'2-0'
p3901
I8
sS'2-1'
p3902
I4
sS'gear'
p3903
I2
sS'shelf'
p3904
I2
sS'completed'
p3905
I4
sS'acquire'
p3906
I24
sS'formalities'
p3907
I2
sS'environmental'
p3908
I10
sS'chemicals'
p3909
I2
sS'reflecting'
p3910
I4
sS'diminish'
p3911
I2
sS'july'
p3912
I22
sS'overwhelming'
p3913
I4
sS'elite'
p3914
I2
sS'completes'
p3915
I4
sS'l987'
p3916
I2
sS'colleagues'
p3917
I2
sS'furnishings'
p3918
I2
sS'reacted'
p3919
I6
sS'submitted'
p3920
I6
sS'limiting'
p3921
I8
sS'sweden'
p3922
I4
sS'defense'
p3923
I10
sS'250-point'
p3924
I2
sS'maybe'
p3925
I14
sS'visited'
p3926
I4
sS'negatively'
p3927
I2
sS'providing'
p3928
I6
sS'result'
p3929
I26
sS'avoided'
p3930
I2
sS'sea'
p3931
I8
sS'lasmo'
p3932
I4
sS'unchanged'
p3933
I2
sS'partnership'
p3934
I6
sS'comfortable'
p3935
I2
sS'tonight'
p3936
I2
sS'goldberg'
p3937
I2
sS'have'
p3938
I198
sS'sen'
p3939
I4
sS'need'
p3940
I10
sS'possiblity'
p3941
I2
sS'blockbuster'
p3942
I2
sS'apparently'
p3943
I4
sS'clearly'
p3944
I6
sS'viewed'
p3945
I2
sS'complete'
p3946
I6
sS'shortages'
p3947
I2
sS'dallas'
p3948
I2
sS'cranes'
p3949
I2
sS'rout'
p3950
I4
sS'agency'
p3951
I28
sS'able'
p3952
I12
sS'switch'
p3953
I2
sS'hangover'
p3954
I4
sS'instance'
p3955
I100
sS'concerns'
p3956
I4
sS'program-related'
p3957
I2
sS'which'
p3958
I140
sS'equaling'
p3959
I4
sS'middle-income'
p3960
I2
sS'korean'
p3961
I2
sS'78'
p3962
I4
sS'soap'
p3963
I2
sS'cosby'
p3964
I4
sS'unless'
p3965
I2
sS'bellwethers'
p3966
I2
sS'who'
p3967
I70
sS'disappointments'
p3968
I2
sS'3-4-5'
p3969
I2
sS'intentions'
p3970
I2
sS'eight'
p3971
I10
sS'overlapping'
p3972
I2
sS'preliminary'
p3973
I2
sS'expired'
p3974
I2
sS'why'
p3975
I4
sS'gurus'
p3976
I2
sS'gorbachev'
p3977
I2
sS'volume'
p3978
I26
sS'discourage'
p3979
I2
sS'amortize'
p3980
I4
sS'laurent'
p3981
I2
sS'downbeat'
p3982
I2
sS'neighboring'
p3983
I4
sS'stronger'
p3984
I16
sS'face'
p3985
I8
sS'scrambled'
p3986
I2
sS'construction'
p3987
I4
sS'pictures'
p3988
I2
sS'typical'
p3989
I4
sS'normally'
p3990
I2
sS'fact'
p3991
I52
sS'goals'
p3992
I2
sS'affair'
p3993
I2
sS'atmosphere'
p3994
I2
sS'selection'
p3995
I2
sS'electoral'
p3996
I4
sS'agreed'
p3997
I24
sS'charles'
p3998
I6
sS'anyway'
p3999
I2
sS'halting'
p4000
I4
sS'wanting'
p4001
I2
sS'artificial'
p4002
I2
sS'portfolio'
p4003
I2
sS'chicken'
p4004
I8
sS'droves'
p4005
I2
sS'agrees'
p4006
I4
sS'spurring'
p4007
I2
sS'shoes'
p4008
I2
sS'litigation'
p4009
I4
sS'partners'
p4010
I8
sS'wear'
p4011
I4
sS'filmed'
p4012
I4
sS'based'
p4013
I40
sS'earned'
p4014
I4
sS'jaw'
p4015
I2
sS'steamed'
p4016
I2
sS'winner'
p4017
I2
sS'unions'
p4018
I10
sS'controls'
p4019
I2
sS'should'
p4020
I30
sS'jan'
p4021
I4
sS'namibia'
p4022
I22
sS'uninterrupted'
p4023
I2
sS'bases'
p4024
I4
sS'tape'
p4025
I4
sS'employee'
p4026
I4
sS'anticipation'
p4027
I2
sS'he'
p4028
I156
sS'local'
p4029
I8
sS'hope'
p4030
I4
sS'drugstores'
p4031
I4
sS'exchanged'
p4032
I2
sS'sharper'
p4033
I2
sS'sued'
p4034
I4
sS'handle'
p4035
I16
sS'means'
p4036
I12
sS'sustain'
p4037
I4
sS'familiar'
p4038
I2
sS'photography'
p4039
I16
sS'overall'
p4040
I12
sS'prohibition'
p4041
I6
sS'120'
p4042
I6
sS'joint'
p4043
I4
sS'littleton'
p4044
I2
sS'ones'
p4045
I4
sS'stars'
p4046
I6
sS'cubs'
p4047
I8
sS'words'
p4048
I22
sS'exchanges'
p4049
I18
sS'timing'
p4050
I4
sS'years'
p4051
I58
sS'chips'
p4052
I14
sS'divided'
p4053
I2
sS'gray'
p4054
I6
sS'amid'
p4055
I4
sS'committees'
p4056
I4
sS'evident'
p4057
I4
sS'tobacco'
p4058
I2
sS'course'
p4059
I22
sS'numerous'
p4060
I4
sS'expansions'
p4061
I2
sS'taxes'
p4062
I2
sS'teams'
p4063
I2
sS'low-profile'
p4064
I2
sS'extremists'
p4065
I4
sS'dpc'
p4066
I6
sS'she'
p4067
I10
sS'contain'
p4068
I2
sS'ohio'
p4069
I4
sS'uniformed'
p4070
I2
sS'133'
p4071
I2
sS'view'
p4072
I14
sS'strengthened'
p4073
I4
sS'requirement'
p4074
I2
sS'temporarily'
p4075
I2
sS'anyhow'
p4076
I2
sS'acquired'
p4077
I8
sS'catastrophic'
p4078
I6
sS'national'
p4079
I38
sS'cuts'
p4080
I2
sS'operates'
p4081
I2
sS'wages'
p4082
I2
sS'computer'
p4083
I22
sS'subcommittee'
p4084
I6
sS'recently'
p4085
I26
sS'barrels'
p4086
I6
sS'mannesmann'
p4087
I2
sS'situation'
p4088
I4
sS'marxist-dominated'
p4089
I2
sS'record'
p4090
I10
sS'clearing'
p4091
I4
sS'droughts'
p4092
I2
sS'tend'
p4093
I10
sS'initially'
p4094
I6
sS'written'
p4095
I6
sS'difficulties'
p4096
I6
sS'taunting'
p4097
I2
sS'tendency'
p4098
I2
sS'closed'
p4099
I48
sS'confusion'
p4100
I2
sS'crude'
p4101
I12
sS'stories'
p4102
I2
sS'prevailing'
p4103
I2
sS'frustrated'
p4104
I2
sS'mainly'
p4105
I16
sS'bought'
p4106
I16
sS'comparable'
p4107
I6
sS'attention'
p4108
I2
sS'ability'
p4109
I2
sS'opening'
p4110
I16
sS'solidify'
p4111
I4
sS'employment-services'
p4112
I2
sS'agencies'
p4113
I8
sS'gatoil'
p4114
I2
sS'efficiency'
p4115
I2
sS'job'
p4116
I8
sS'takeover'
p4117
I20
sS'punishable'
p4118
I2
sS'key'
p4119
I10
sS'group'
p4120
I34
sS'precious'
p4121
I2
sS'lawsuit'
p4122
I2
sS'declining'
p4123
I4
sS'david'
p4124
I4
sS'restrictions'
p4125
I4
sS'hits'
p4126
I30
sS'planned'
p4127
I6
sS'limits'
p4128
I8
sS'leveraged'
p4129
I6
sS'career'
p4130
I4
sS'joke'
p4131
I2
sS'taking'
p4132
I6
sS'acknowledge'
p4133
I2
sS'equal'
p4134
I2
sS'attributed'
p4135
I2
sS'yelped'
p4136
I2
sS'april'
p4137
I6
sS'figures'
p4138
I12
sS'auctions'
p4139
I2
sS'publicized'
p4140
I2
sS'swim'
p4141
I2
sS'passing'
p4142
I2
sS'heart'
p4143
I2
sS'jersey'
p4144
I2
sS'grounds'
p4145
I2
sS'800-number'
p4146
I2
sS'co'
p4147
I56
sS'wall'
p4148
I46
sS'stranding'
p4149
I2
sS'tuesday'
p4150
I6
sS'resulting'
p4151
I2
sS'576'
p4152
I4
sS'575'
p4153
I4
sS'walt'
p4154
I6
sS'distinguish'
p4155
I4
sS'carbon'
p4156
I6
sS'respect'
p4157
I4
sS'oakland'
p4158
I8
sS'appeared'
p4159
I4
sS'ad'
p4160
I24
sS'erased'
p4161
I4
sS'three-fourths'
p4162
I2
sS'industrials'
p4163
I6
sS'gadhafi'
p4164
I2
sS'metruh'
p4165
I2
sS'addition'
p4166
I16
sS'swapo'
p4167
I18
sS'trademark'
p4168
I2
sS'charts'
p4169
I2
sS'cent'
p4170
I8
sS'liberals'
p4171
I2
sS'willing'
p4172
I2
sS'treat'
p4173
I2
sS'indicators'
p4174
I6
sS'2019'
p4175
I2
sS'proposal'
p4176
I18
sS'curtail'
p4177
I2
sS'louisiana'
p4178
I2
sS'weslock'
p4179
I2
sS'choose'
p4180
I4
sS'dresdner'
p4181
I2
sS'mike'
p4182
I2
sS'nonsense'
p4183
I2
sS'both'
p4184
I34
sS'painted'
p4185
I2
sS'sufficient'
p4186
I4
sS'otc'
p4187
I12
sS'full-time'
p4188
I2
sS'462'
p4189
I4
sS'guerrillas'
p4190
I6
sS'finished'
p4191
I2
sS'sensed'
p4192
I2
sS'yamaichi'
p4193
I2
sS'kicks'
p4194
I4
sS'improved'
p4195
I4
sS'an'
p4196
I162
sS'spain'
p4197
I10
sS'divisions'
p4198
I2
sS'prospect'
p4199
I2
sS'930'
p4200
I2
sS'laser'
p4201
I6
sS'abandoned'
p4202
I2
sS'unlike'
p4203
I2
sS'ex-attorney'
p4204
I2
sS'colton'
p4205
I2
sS'harder'
p4206
I4
sS'darman'
p4207
I4
sS'value'
p4208
I20
sS'choices'
p4209
I2
sS'will'
p4210
I176
sS'expiration'
p4211
I6
sS'owns'
p4212
I12
sS'wild'
p4213
I8
sS'balance'
p4214
I4
sS'revisited'
p4215
I2
sS'frustrating'
p4216
I4
sS'late-afternoon'
p4217
I2
sS'supply'
p4218
I6
sS'va'
p4219
I14
sS'layer'
p4220
I2
sS'annual'
p4221
I2
sS'chaotic'
p4222
I6
sS'diversification'
p4223
I4
sS'ink'
p4224
I4
sS'thus'
p4225
I6
sS'site'
p4226
I4
sS'respected'
p4227
I2
sS'arrangements'
p4228
I2
sS'optimistic'
p4229
I4
sS'politics'
p4230
I2
sS'claimed'
p4231
I4
sS'partner'
p4232
I2
sS'shearson'
p4233
I38
sS'35087'
p4234
I2
sS'tumbled'
p4235
I4
sS'capture'
p4236
I2
sS'shooting'
p4237
I2
sS'1998'
p4238
I2
sS'sensitive'
p4239
I4
sS'perhaps'
p4240
I6
sS'began'
p4241
I30
sS'administration'
p4242
I24
sS'upside'
p4243
I2
sS'proceeds'
p4244
I2
sS'member'
p4245
I4
sS'retailing'
p4246
I4
sS'parts'
p4247
I2
sS'helicopters'
p4248
I2
sS'largest'
p4249
I6
sS'units'
p4250
I6
sS'party'
p4251
I8
sS'perkin-elmer'
p4252
I2
sS'frivolous'
p4253
I4
sS'high-yielding'
p4254
I2
sS'-monitored'
p4255
I4
sS'ball'
p4256
I6
sS'columbia'
p4257
I12
sS'emotionally'
p4258
I4
sS'innings'
p4259
I2
sS'reporting'
p4260
I2
sS'production-sharing'
p4261
I2
sS'effect'
p4262
I4
sS'spree'
p4263
I4
sS'judgment'
p4264
I4
sS'lobby'
p4265
I8
sS'expand'
p4266
I10
sS'diabetes'
p4267
I2
sS'morris'
p4268
I2
sS'transaction'
p4269
I2
sS'off'
p4270
I62
sS'center'
p4271
I8
sS'detergents'
p4272
I2
sS'i'
I88
sS'weapon'
p4273
I2
sS'contest'
p4274
I2
sS'well'
p4275
I16
sS'fighting'
p4276
I2
sS'bluest'
p4277
I2
sS'thought'
p4278
I12
sS'credibility'
p4279
I2
sS'position'
p4280
I12
sS'breaker'
p4281
I2
sS'soviet'
p4282
I2
sS'draconian'
p4283
I2
sS'latest'
p4284
I28
sS'taxpayer'
p4285
I2
sS'less'
p4286
I18
sS'increasingly'
p4287
I2
sS'sanguine'
p4288
I2
sS'executive'
p4289
I18
sS'domestic'
p4290
I10
sS'keeping'
p4291
I2
sS'palamara'
p4292
I2
sS'sources'
p4293
I4
sS'underlying'
p4294
I4
sS'rooms'
p4295
I2
sS'predicts'
p4296
I2
sS'seats'
p4297
I4
sS'miniscule'
p4298
I4
sS'excellent'
p4299
I4
sS'rest'
p4300
I4
sS'illinois'
p4301
I4
sS'griffith'
p4302
I4
sS'ushered'
p4303
I2
sS'adt'
p4304
I4
sS'rapid'
p4305
I2
sS'ads'
p4306
I32
sS'cinematography'
p4307
I2
sS'dax'
p4308
I4
sS'large-scale'
p4309
I2
sS'smith'
p4310
I12
sS'deposits'
p4311
I4
sS'recommending'
p4312
I2
sS'discuss'
p4313
I2
sS'289'
p4314
I2
sS'288'
p4315
I2
sS'add'
p4316
I2
sS'other'
p4317
I106
sS'runners'
p4318
I2
sS'cfcs'
p4319
I2
sS'crack'
p4320
I4
sS'281'
p4321
I2
sS'283'
p4322
I2
sS'barrow'
p4323
I4
sS'warrant'
p4324
I6
sS'match'
p4325
I2
sS'details'
p4326
I2
sS'resolved'
p4327
I4
sS'suisse'
p4328
I2
sS'tests'
p4329
I4
sS'fluctuating'
p4330
I2
sS'definitive'
p4331
I2
sS'provisions'
p4332
I6
sS'government'
p4333
I56
sS'chancellor'
p4334
I2
sS'birkel'
p4335
I8
sS'protesters'
p4336
I2
sS'increases'
p4337
I12
sS'five'
p4338
I20
sS'know'
p4339
I14
sS'264'
p4340
I2
sS'press'
p4341
I10
sS'268'
p4342
I2
sS'thrill'
p4343
I2
sS'loss'
p4344
I56
sS'lincoln'
p4345
I2
sS'gramm-rudman'
p4346
I2
sS'like'
p4347
I54
sS'lost'
p4348
I28
sS'perpetual'
p4349
I2
sS't-max'
p4350
I4
sS'taping'
p4351
I2
sS'taxpayers'
p4352
I6
sS'payments'
p4353
I2
sS'lufkin'
p4354
I2
sS'become'
p4355
I12
sS'consulting'
p4356
I2
sS'works'
p4357
I2
sS'soft'
p4358
I4
sS'page'
p4359
I4
sS'backlog'
p4360
I2
sS'italian'
p4361
I2
sS'amendment'
p4362
I6
sS'awash'
p4363
I4
sS'indications'
p4364
I2
sS'because'
p4365
I164
sS'arbitrage'
p4366
I4
sS'municipal'
p4367
I4
sS'mersa'
p4368
I2
sS'church'
p4369
I2
sS'junk'
p4370
I16
sS'near-panic'
p4371
I2
sS'114'
p4372
I2
sS'117'
p4373
I2
sS'growth'
p4374
I18
sS'export'
p4375
I4
sS'convey'
p4376
I4
sS'loaded'
p4377
I2
sS'proper'
p4378
I2
sS'home'
p4379
I32
sS'empire'
p4380
I4
sS'peter'
p4381
I2
sS'employment'
p4382
I2
sS'frenetic'
p4383
I2
sS'recognition'
p4384
I4
sS'latched'
p4385
I2
sS'jeremy'
p4386
I2
sS'charges'
p4387
I6
sS'lead'
p4388
I10
sS'sufficiently'
p4389
I2
sS'broad'
p4390
I6
sS'avoid'
p4391
I6
sS'lean'
p4392
I2
sS'slipping'
p4393
I2
sS'demonstrators'
p4394
I2
sS'detergent'
p4395
I2
sS'marched'
p4396
I2
sS'does'
p4397
I20
sS'sponsoring'
p4398
I2
sS'bosses'
p4399
I2
sS'midnight'
p4400
I2
sS'2076'
p4401
I2
sS'demonstrated'
p4402
I2
sS'bolster'
p4403
I2
sS'thinly'
p4404
I2
sS'hose'
p4405
I2
sS'indicated'
p4406
I10
sS'reaching'
p4407
I6
sS'june'
p4408
I6
sS'journal'
p4409
I4
sS'nursing-home'
p4410
I2
sS'expansion'
p4411
I4
sS'beneficiary'
p4412
I2
sS'syse'
p4413
I2
sS'pressure'
p4414
I10
sS'host'
p4415
I4
sS'expire'
p4416
I6
sS'although'
p4417
I24
sS'offset'
p4418
I6
sS'pasta'
p4419
I10
sS'bidermann'
p4420
I4
sS'loans'
p4421
I26
sS'panel'
p4422
I10
sS'gained'
p4423
I4
sS'about'
p4424
I170
sS'actual'
p4425
I4
sS'boards'
p4426
I2
sS'kevin'
p4427
I2
sS'getting'
p4428
I6
sS'high-end'
p4429
I4
sS'freedom'
p4430
I6
sS'certainty'
p4431
I2
sS'location'
p4432
I2
sS'urged'
p4433
I2
sS'over-allotment'
p4434
I4
sS'angeles'
p4435
I2
sS'union'
p4436
I18
sS'carries'
p4437
I4
sS'carrier'
p4438
I4
sS'concession'
p4439
I2
sS'introduced'
p4440
I14
sS'martinsville'
p4441
I4
sS'revise'
p4442
I2
sS'executives'
p4443
I10
sS'outset'
p4444
I2
sS'muddied'
p4445
I2
sS'polished'
p4446
I2
sS'previously'
p4447
I14
sS'booed'
p4448
I2
sS'488'
p4449
I2
sS'year'
p4450
I94
sS'commitment'
p4451
I6
sS'due'
p4452
I12
sS'ultrasound'
p4453
I2
sS'anniversary'
p4454
I2
sS'nrdc'
p4455
I4
sS'finsbury'
p4456
I2
sS'artists'
p4457
I2
sS'dixie'
p4458
I2
sS'mere'
p4459
I2
sS'1986'
p4460
I4
sS'1987'
p4461
I50
sS'1984'
p4462
I8
sS'1985'
p4463
I12
sS'van'
p4464
I12
sS'additional'
p4465
I20
sS'1980'
p4466
I2
sS'rushed'
p4467
I2
sS'prospects'
p4468
I4
sS'housing'
p4469
I42
sS'support'
p4470
I8
sS'spiral'
p4471
I2
sS'1988'
p4472
I50
sS'1989'
p4473
I18
sS'continental'
p4474
I10
sS'spread'
p4475
I4
sS'merchandise'
p4476
I2
sS'airline'
p4477
I6
sS'afrika'
p4478
I2
sS'biggest'
p4479
I22
sS'troubling'
p4480
I4
sS'rode'
p4481
I4
sS'pretax'
p4482
I4
sS'touted'
p4483
I2
sS'brandished'
p4484
I2
sS'fiscal'
p4485
I40
sS'solidarity-led'
p4486
I2
sS'buy'
p4487
I48
sS'north'
p4488
I4
sS'complacency'
p4489
I2
sS'triggered'
p4490
I4
sS'560'
p4491
I2
sS'funds'
p4492
I22
sS'brand'
p4493
I2
sS'but'
p4494
I242
sS'societe'
p4495
I2
sS'delivery'
p4496
I14
sS'reminds'
p4497
I2
sS'lowered'
p4498
I4
sS'mailed'
p4499
I2
sS'gain'
p4500
I56
sS'automated'
p4501
I2
sS'un-advertising'
p4502
I2
sS'highest'
p4503
I6
sS'violate'
p4504
I2
sS'assets'
p4505
I16
sS'made'
p4506
I26
sS'wise'
p4507
I2
sS'hitter'
p4508
I4
sS'whether'
p4509
I12
sS'official'
p4510
I8
sS'distract'
p4511
I2
sS'imbalances'
p4512
I4
sS"'wow"
p4513
I4
sS'placed'
p4514
I10
sS'below'
p4515
I4
sS'limit'
p4516
I8
sS'ruling'
p4517
I2
sS'steepest'
p4518
I2
sS'problem'
p4519
I16
sS'lightning'
p4520
I2
sS'minutes'
p4521
I46
sS'display'
p4522
I2
sS'strengthens'
p4523
I2
sS'bearing'
p4524
I2
sS'marketplace'
p4525
I4
sS'play'
p4526
I6
sS'intimidating'
p4527
I4
sS'recognize'
p4528
I6
sS'circus'
p4529
I2
sS'first-year'
p4530
I2
sS'upward'
p4531
I2
sS'full-year'
p4532
I6
sS'23-day'
p4533
I2
sS'periods'
p4534
I4
sS'sejm'
p4535
I4
sS'83'
p4536
I8
sS'flight'
p4537
I8
sS'education'
p4538
I12
sS'margins'
p4539
I2
sS'inc'
p4540
I44
sS'diego'
p4541
I4
sS'mutual'
p4542
I4
sS'compared'
p4543
I28
sS"'ll"
p4544
I8
sS'48'
p4545
I4
sS'49'
p4546
I10
sS'46'
p4547
I4
sS'47'
p4548
I2
sS'44'
p4549
I2
sS'45'
p4550
I16
sS'oak'
p4551
I2
sS'43'
p4552
I6
sS'40'
p4553
I34
sS'41'
p4554
I10
sS'book'
p4555
I4
sS'saint'
p4556
I2
sS'witness'
p4557
I2
sS'branch'
p4558
I2
sS'mass'
p4559
I10
sS'85'
p4560
I8
sS'stat'
p4561
I4
sS'francisco'
p4562
I4
sS'monday'
p4563
I50
sS'jeopardized'
p4564
I2
sS'regular-season'
p4565
I4
sS'stay'
p4566
I6
sS'risked'
p4567
I2
sS'chance'
p4568
I10
sS'shrank'
p4569
I4
sS'patch'
p4570
I2
sS'earth-moving'
p4571
I2
sS'friends'
p4572
I4
sS'overseas'
p4573
I2
sS'exposure'
p4574
I2
sS'ranks'
p4575
I2
sS'starting'
p4576
I4
sS'spokesmen'
p4577
I4
sS'fest'
p4578
I2
sS'rule'
p4579
I4
sS'intentionally'
p4580
I2
sS'473'
p4581
I2
sS'portion'
p4582
I2
sS'write'
p4583
I6
sS'compete'
p4584
I2
sS'pension'
p4585
I2
sS'474'
p4586
I4
sS'ideological'
p4587
I2
sS'rural'
p4588
I2
sS'478'
p4589
I2
sS'frankfurt'
p4590
I18
sS'sunda'
p4591
I4
sS'brokers'
p4592
I4
ssS'_mapping'
p4593
(dp4594
g18
I586
sg19
I3454
sg20
I1100
sg21
I4184
sg22
I587
sg23
I2336
sg24
I4371
sg25
I2666
sg26
I3163
sg27
I4563
sg28
I3856
sg29
I4466
sg30
I2494
sg31
I975
sg32
I3114
sg33
I1253
sg34
I1135
sg35
I1564
sg36
I1376
sg37
I2895
sg38
I4234
sg39
I468
sg40
I1724
sg41
I1316
sg42
I1192
sg43
I2040
sg44
I3109
sg45
I1051
sg46
I4519
sg47
I1566
sg48
I1513
sg49
I3816
sg50
I1061
sg51
I4258
sg52
I680
sg53
I1352
sg54
I4585
sg55
I925
sg56
I3083
sg57
I3203
sg58
I2296
sg59
I4559
sg60
I3919
sg61
I3154
sg62
I2833
sg63
I3655
sg64
I1951
sg65
I1206
sg66
I2557
sg67
I657
sg68
I1760
sg69
I2022
sg70
I758
sg71
I3413
sg72
I2
sg73
I2263
sg74
I524
sg75
I3113
sg76
I4197
sg77
I3884
sg78
I935
sg79
I2352
sg80
I819
sg81
I108
sg82
I998
sg83
I34
sg84
I3658
sg85
I509
sg86
I3014
sg87
I3230
sg88
I206
sg89
I1248
sg90
I3775
sg91
I4423
sg92
I4396
sg93
I3522
sg94
I3544
sg95
I1413
sg96
I1238
sg97
I2740
sg98
I3871
sg99
I290
sg100
I1304
sg101
I3084
sg102
I756
sg103
I3533
sg104
I3375
sg105
I60
sg106
I945
sg107
I3557
sg108
I532
sg109
I2470
sg110
I1615
sg111
I1412
sg112
I2318
sg113
I2196
sg114
I1996
sg115
I1024
sg116
I1451
sg117
I2020
sg118
I883
sg119
I2242
sg120
I1477
sg121
I379
sg122
I2727
sg123
I1603
sg124
I3390
sg125
I1605
sg126
I2748
sg127
I2305
sg128
I350
sg129
I1027
sg130
I2332
sg131
I2618
sg132
I3435
sg133
I4124
sg134
I448
sg135
I1623
sg136
I2246
sS'k'
I640
sg137
I411
sg138
I3126
sg139
I4553
sg140
I2551
sg141
I473
sg142
I374
sg143
I2078
sg144
I4413
sg145
I911
sg146
I677
sg147
I2010
sg148
I3830
sg149
I2977
sg150
I3072
sg151
I1067
sg152
I1220
sg153
I4109
sg154
I3637
sg155
I1401
sg156
I438
sg157
I706
sg158
I4341
sg159
I3918
sg160
I1374
sg161
I1364
sg162
I369
sg163
I4022
sg164
I3635
sg165
I2519
sg166
I4091
sg167
I4446
sg168
I1750
sg169
I2793
sg170
I1350
sg171
I2892
sg172
I4103
sg173
I3594
sg174
I3
sg175
I3069
sg176
I3005
sg177
I1891
sg178
I2154
sg179
I3383
sg180
I3901
sg181
I2953
sg182
I1496
sg183
I289
sg184
I202
sg185
I3891
sg186
I2407
sg187
I1306
sg188
I119
sg189
I2250
sg190
I3153
sg191
I4459
sg192
I1259
sg193
I1552
sg194
I1675
sg195
I2844
sg196
I3164
sg197
I3575
sg198
I1407
sg199
I950
sg200
I2856
sg201
I4337
sg202
I3234
sg203
I1592
sg204
I1712
sg205
I1478
sg206
I2329
sg207
I3654
sg208
I1572
sg209
I462
sg210
I152
sg211
I2053
sg212
I1943
sg213
I2463
sg214
I1014
sg215
I1452
sg216
I1987
sg217
I4352
sg218
I467
sg219
I1389
sg220
I702
sg221
I2909
sg222
I3606
sg223
I3706
sg224
I376
sg225
I488
sg226
I4061
sg227
I542
sg228
I791
sg229
I262
sg230
I3429
sg231
I1346
sg232
I1281
sg233
I2120
sg234
I2801
sg235
I3792
sg236
I3424
sg237
I661
sg238
I1197
sg239
I162
sg240
I3776
sg241
I62
sg242
I4360
sg243
I1544
sg244
I2343
sg245
I2163
sg246
I4025
sg247
I823
sg248
I2119
sg249
I3211
sg250
I4439
sg251
I2509
sg252
I2068
sg253
I3449
sg254
I1053
sg255
I832
sg256
I4372
sg257
I3350
sg258
I1906
sg259
I2435
sg260
I3037
sg261
I1807
sg262
I4421
sg263
I3021
sg264
I2211
sg265
I4186
sg266
I1141
sg267
I991
sg268
I3222
sg269
I4210
sg270
I436
sg271
I4299
sg272
I195
sg273
I1009
sg274
I4307
sg275
I3368
sg276
I1410
sg277
I2627
sg278
I499
sg279
I370
sg280
I50
sg281
I3238
sg282
I1528
sg283
I2253
sg284
I2641
sg285
I454
sg286
I659
sg287
I4498
sg288
I2140
sg289
I2186
sg290
I4598
sg291
I80
sg292
I612
sg293
I2593
sg294
I2912
sg295
I1706
sg296
I3866
sg297
I821
sg298
I1646
sg299
I61
sg300
I2427
sg301
I1121
sg302
I1341
sg303
I1043
sg304
I302
sg305
I2227
sg306
I1885
sg307
I1549
sg308
I3525
sg309
I982
sg310
I544
sg311
I2692
sg312
I222
sg313
I721
sg314
I4350
sg315
I128
sg316
I848
sg317
I2830
sg318
I770
sg319
I190
sg320
I3408
sg321
I1294
sg322
I3124
sg323
I3881
sg324
I684
sg325
I1348
sg326
I2304
sg327
I1314
sg328
I2536
sg329
I3046
sg330
I4601
sg331
I4033
sg332
I268
sg333
I238
sg334
I1909
sg335
I971
sg336
I2461
sg337
I3448
sg338
I2315
sg339
I2197
sg340
I2395
sg341
I2754
sg342
I2495
sg343
I2847
sg344
I2428
sg345
I161
sg346
I4097
sg347
I3422
sg348
I1874
sg349
I1789
sg350
I3980
sg351
I17
sg352
I4017
sg353
I757
sg354
I3261
sg355
I3331
sg356
I4291
sg357
I1635
sg358
I1945
sg359
I437
sg360
I3890
sS'l'
I48
sg361
I3797
sg362
I1267
sg363
I3986
sg364
I269
sg365
I4521
sg366
I652
sg367
I546
sg368
I1836
sg369
I994
sg370
I2779
sg371
I4595
sg372
I242
sg373
I1962
sg374
I3716
sg375
I3051
sg376
I4115
sg377
I3282
sg378
I1377
sg379
I992
sg380
I804
sg381
I3702
sg382
I3948
sg383
I609
sg384
I3131
sg385
I3257
sg386
I2310
sg387
I674
sg388
I3042
sg389
I2115
sg390
I3768
sg391
I3604
sg392
I314
sg393
I1416
sg394
I1482
sg395
I3963
sg396
I2289
sg397
I642
sg398
I55
sg399
I4085
sg400
I4566
sg401
I1600
sg402
I2136
sg403
I583
sg404
I4407
sg405
I2324
sg406
I2087
sg407
I272
sg408
I1461
sg409
I3313
sg410
I2678
sg411
I4249
sg412
I2710
sg413
I3459
sg414
I3425
sg415
I912
sg416
I3066
sg417
I2219
sg418
I3565
sg419
I627
sg420
I3200
sg421
I3600
sg422
I3990
sg423
I56
sg424
I3906
sg425
I4422
sg426
I2182
sg427
I198
sg428
I1103
sg429
I803
sg430
I4170
sg431
I2047
sg432
I2624
sg433
I2915
sg434
I3227
sg435
I3639
sg436
I3591
sg437
I649
sg438
I98
sg439
I1422
sg440
I365
sg441
I3256
sg442
I323
sg443
I1897
sg444
I31
sg445
I2039
sg446
I2814
sg447
I2759
sg448
I66
sg449
I3361
sg450
I2347
sg451
I1382
sg452
I3297
sg12
I0
sg453
I1844
sg454
I3134
sg455
I3514
sg456
I1921
sg457
I939
sg458
I3532
sg459
I4587
sg460
I1808
sg461
I2539
sg462
I1378
sg463
I2357
sg464
I4382
sg465
I3411
sg466
I1284
sg467
I75
sg468
I316
sg469
I700
sg470
I2783
sg471
I497
sg472
I3724
sg473
I4008
sg474
I4525
sg475
I2175
sg476
I168
sg477
I4238
sg478
I1087
sg479
I2397
sg480
I4166
sg481
I4072
sg482
I343
sg483
I713
sg484
I1297
sg485
I2472
sg486
I3663
sg487
I3916
sg488
I3765
sg489
I4561
sg490
I3044
sg491
I2943
sg492
I3118
sg493
I2297
sg494
I660
sg495
I3170
sg496
I2527
sg497
I739
sg498
I3404
sg499
I2167
sg500
I810
sg501
I2651
sg502
I1957
sg503
I3160
sg504
I3106
sg505
I3008
sg506
I4590
sg507
I4578
sg508
I1534
sg509
I2377
sg510
I932
sg511
I3335
sg512
I3488
sg513
I4586
sg514
I2009
sg515
I1232
sg516
I458
sg517
I476
sg518
I2882
sg519
I4028
sg520
I3150
sg521
I3019
sg522
I4158
sg523
I377
sg524
I989
sg525
I427
sg526
I451
sg527
I371
sg528
I2456
sg529
I2597
sg530
I380
sg531
I116
sg532
I3043
sg533
I4354
sg534
I2781
sg535
I764
sg536
I2964
sg537
I3101
sg538
I2686
sg539
I2351
sg540
I2516
sg541
I2722
sg542
I2278
sg543
I3030
sg544
I1963
sg545
I2870
sg546
I1033
sg547
I2868
sg548
I978
sg549
I4469
sg550
I1755
sg551
I2261
sg552
I4534
sg553
I2819
sg554
I3668
sg555
I1735
sg556
I1974
sg557
I1370
sg558
I2084
sg559
I1228
sg560
I2299
sg561
I1337
sg562
I3447
sg563
I1223
sg564
I2726
sg565
I2016
sg566
I3914
sg567
I3396
sg568
I3931
sg569
I1822
sg570
I3973
sS'm'
I215
sg571
I2433
sg572
I3934
sg573
I1011
sg574
I815
sg575
I479
sg576
I1001
sg577
I1587
sg578
I1661
sg579
I1075
sg580
I1610
sg581
I396
sg582
I2518
sg583
I686
sg584
I2849
sg585
I4132
sg586
I3062
sg587
I2480
sg588
I1025
sg589
I743
sg590
I4089
sg591
I2156
sg592
I3332
sg593
I1982
sg594
I3285
sg595
I2338
sg596
I4260
sg597
I4463
sg598
I2594
sg599
I4004
sg600
I2799
sg601
I3325
sg602
I287
sg603
I1783
sg604
I1704
sg605
I4084
sg606
I2295
sg607
I1221
sg608
I2695
sg609
I582
sg610
I738
sg611
I2344
sg612
I3518
sg613
I755
sg614
I4510
sg615
I740
sg616
I844
sg617
I4006
sg618
I3328
sg619
I4040
sg620
I4096
sg621
I2858
sg622
I959
sg623
I914
sg624
I1713
sg625
I3107
sg626
I1233
sg627
I1847
sg628
I3359
sg629
I3108
sg630
I3262
sg631
I455
sg632
I2073
sg633
I2234
sg634
I2264
sg635
I1698
sg636
I341
sg637
I699
sg638
I1157
sg639
I3065
sg640
I1967
sg641
I2384
sg642
I1977
sg643
I2550
sg644
I818
sg645
I1508
sg646
I1599
sg647
I81
sg648
I1298
sg649
I2966
sg650
I3561
sg651
I4503
sg652
I2286
sg653
I1394
sg654
I1485
sg655
I4475
sg656
I1251
sg657
I1247
sg658
I1636
sg659
I4262
sg660
I3689
sg661
I2459
sg662
I1658
sg663
I3957
sg664
I3479
sg665
I2139
sg666
I4391
sg667
I1535
sg668
I244
sg669
I940
sg670
I1907
sg671
I3104
sg672
I3836
sg673
I490
sg674
I4126
sg675
I1101
sg676
I3137
sg677
I2875
sg678
I942
sg679
I445
sg680
I1919
sg681
I4021
sg682
I2481
sg683
I1070
sg684
I615
sg685
I2380
sg686
I4237
sg687
I1150
sg688
I1295
sg689
I1918
sg690
I3982
sg691
I421
sg692
I4370
sg693
I1265
sg694
I2602
sg695
I123
sg696
I3346
sg697
I486
sg698
I1285
sg699
I1702
sg700
I3070
sg701
I3757
sg702
I3147
sg703
I4111
sg704
I772
sg705
I2995
sg706
I2097
sg707
I1536
sg708
I3434
sg709
I1219
sg710
I3907
sg711
I433
sg712
I21
sg713
I828
sg714
I4356
sg715
I3216
sg716
I297
sg717
I339
sg718
I4390
sg719
I3520
sg720
I3273
sg721
I506
sg722
I171
sg723
I2939
sg724
I340
sg725
I1975
sg726
I3747
sg727
I564
sg728
I1486
sg729
I38
sg730
I3595
sg731
I3628
sg732
I1614
sg733
I3755
sg734
I2067
sg735
I2498
sg736
I2785
sg737
I1954
sg738
I2083
sg739
I2291
sg740
I3233
sg741
I3560
sg742
I3314
sg743
I4043
sg744
I538
sg745
I4343
sg746
I3016
sg747
I1118
sg748
I767
sg749
I1833
sg750
I6
sg751
I4180
sg752
I1495
sg753
I309
sg754
I2442
sg755
I192
sg756
I3455
sg757
I1347
sg758
I4041
sg759
I1182
sg760
I393
sg761
I315
sg762
I348
sg763
I2645
sg764
I1437
sg765
I869
sg766
I74
sg767
I2573
sg768
I1211
sg769
I3145
sg770
I3707
sg771
I4013
sg772
I1469
sg773
I1302
sg774
I2531
sg775
I2698
sg776
I3592
sg777
I3899
sg778
I1939
sg779
I2383
sg780
I2134
sg781
I648
sg782
I3224
sg783
I1576
sg784
I2273
sg785
I1707
sg786
I3152
sg787
I1428
sg788
I1579
sg789
I3988
sg790
I1908
sg791
I3679
sg792
I96
sg793
I2062
sg794
I4141
sg795
I2738
sg796
I2135
sg797
I219
sg798
I2057
sg799
I1851
sg800
I545
sg801
I3067
sg802
I2077
sg803
I3927
sg804
I1209
sg805
I4163
sg806
I1330
sg807
I1665
sg808
I472
sg809
I596
sg810
I1507
sg811
I3529
sg812
I1047
sg813
I107
sg814
I554
sg815
I91
sg816
I2450
sg817
I1514
sg818
I3705
sg819
I1997
sg820
I2723
sg821
I4324
sg822
I4342
sg823
I3374
sg824
I46
sg825
I3911
sg826
I514
sg827
I160
sg828
I3574
sg829
I4564
sg830
I1142
sg831
I2996
sg832
I1604
sg833
I4568
sg834
I2103
sg835
I426
sg836
I3156
sg837
I2350
sg838
I3243
sg839
I43
sg840
I2006
sg841
I1335
sg842
I2458
sg843
I4000
sg844
I3370
sg845
I3075
sg846
I264
sg847
I799
sg848
I1372
sg849
I4143
sg850
I4506
sg851
I754
sg852
I1937
sg853
I2751
sg854
I2871
sg855
I1842
sg856
I4203
sg857
I1153
sg858
I3384
sg859
I382
sg860
I1476
sg861
I2691
sg862
I2314
sg863
I3174
sg864
I3720
sg865
I1736
sg866
I3682
sg867
I1570
sg868
I3808
sg869
I4440
sg870
I3643
sg871
I1
sg872
I835
sg873
I522
sg874
I223
sg875
I1903
sg876
I1037
sg877
I1201
sg878
I2114
sg879
I185
sg880
I3360
sg881
I1721
sg882
I539
sg883
I3723
sg884
I1098
sg885
I1275
sg886
I2622
sg887
I349
sg888
I2274
sg889
I547
sg890
I3993
sg891
I2487
sg892
I2611
sg893
I1816
sg894
I4394
sg895
I3258
sg896
I1060
sg897
I2873
sg898
I3344
sg899
I3584
sg900
I4331
sg901
I218
sg902
I795
sg903
I2418
sg904
I2787
sS'n'
I1518
sg905
I3496
sg906
I734
sg907
I3640
sg908
I817
sg909
I3138
sg910
I789
sg911
I1686
sg912
I776
sg913
I3810
sg914
I2089
sg915
I781
sg916
I741
sg917
I3769
sg918
I4332
sg919
I1270
sg920
I2973
sg921
I3467
sg922
I1064
sg923
I1973
sg924
I1526
sg925
I2983
sg926
I3492
sg927
I1114
sg928
I1522
sg929
I2408
sg930
I1685
sg931
I4452
sg932
I3704
sg933
I228
sg934
I805
sg935
I3198
sg936
I4597
sg937
I1578
sg938
I1583
sg939
I1752
sg940
I1397
sg941
I1530
sg942
I938
sg943
I4095
sg944
I534
sg945
I39
sg946
I1639
sg947
I2571
sg948
I1354
sg949
I221
sg950
I2044
sg951
I1601
sg952
I624
sg953
I3003
sg954
I3251
sg955
I2802
sg956
I1035
sg957
I878
sg958
I1239
sg959
I974
sg960
I1396
sg961
I4556
sg962
I2719
sg963
I1226
sg964
I3296
sg965
I3063
sg966
I2864
sg967
I3334
sg968
I3302
sg969
I446
sg970
I2366
sg971
I1498
sg972
I983
sg973
I261
sg974
I641
sg975
I3531
sg976
I3038
sg977
I2260
sg978
I3239
sg979
I404
sg980
I2659
sg981
I383
sg982
I395
sg983
I3717
sg984
I3365
sg985
I4411
sg986
I3343
sg987
I1591
sg988
I1670
sg989
I4301
sg990
I2994
sg991
I3050
sg992
I3512
sg993
I1799
sg994
I2980
sg995
I2166
sg996
I1333
sg997
I1158
sg998
I2898
sg999
I2172
sg1000
I1406
sg1001
I175
sg1002
I492
sg1003
I1340
sg1004
I3195
sg1005
I1349
sg1006
I4478
sg1007
I342
sg1008
I4202
sg1009
I225
sg1010
I265
sg1011
I733
sg1012
I1882
sg1013
I533
sg1014
I658
sg1015
I233
sg1016
I3556
sg1017
I1756
sg1018
I1242
sg1019
I3782
sg1020
I1776
sg1021
I2566
sg1022
I4058
sg1023
I68
sg1024
I367
sg1025
I1460
sg1026
I4392
sg1027
I4114
sg1028
I4388
sg1029
I2081
sg1030
I4461
sg1031
I2398
sg1032
I2180
sg1033
I359
sg1034
I3969
sg1035
I3213
sg1036
I629
sg1037
I3791
sg1038
I4239
sg1039
I337
sg1040
I779
sg1041
I3966
sg1042
I2457
sg1043
I3232
sg1044
I3711
sg1045
I2742
sg1046
I1116
sg1047
I3886
sg1048
I773
sg1049
I419
sg1050
I1204
sg1051
I888
sg1052
I136
sg1053
I2359
sg1054
I874
sg1055
I1693
sg1056
I3229
sg1057
I3932
sg1058
I665
sg1059
I1581
sg1060
I280
sg1061
I2794
sg1062
I59
sg1063
I2635
sg1064
I1645
sg1065
I3295
sg1066
I2791
sg1067
I1502
sg1068
I2631
sg1069
I3476
sg1070
I3443
sg1071
I1299
sg1072
I1325
sg1073
I3064
sg1074
I4537
sg1075
I3078
sg1076
I1700
sg1077
I1164
sg1078
I4451
sg1079
I2471
sg1080
I3155
sg1081
I3708
sg1082
I1911
sg1083
I1709
sg1084
I409
sg1085
I1484
sg1086
I4302
sg1087
I114
sg1088
I3236
sg1089
I3767
sg1090
I3115
sg1091
I710
sg1092
I3415
sg1093
I2988
sg1094
I2711
sg1095
I4545
sg1096
I1976
sg1097
I2583
sg1098
I2548
sg1099
I1773
sg1100
I3177
sg1101
I2861
sg1102
I1888
sg1103
I2353
sg1104
I672
sg1105
I1042
sg1106
I2400
sg1107
I3151
sg1108
I4113
sg1109
I1360
sg1110
I3247
sg1111
I717
sg1112
I4557
sg1113
I2841
sg1114
I3464
sg1115
I1666
sg1116
I4347
sg1117
I2886
sg1118
I2446
sg1119
I4436
sg1120
I1870
sg1121
I4491
sg1122
I3949
sg1123
I4448
sg1124
I1867
sg1125
I1144
sg1126
I3023
sg1127
I1012
sg1128
I482
sg1129
I246
sg1130
I4112
sg1131
I2842
sg1132
I3035
sg1133
I2430
sg1134
I1960
sg1135
I3737
sg1136
I1782
sg1137
I3535
sg1138
I2141
sg1139
I2957
sg1140
I2360
sg1141
I3322
sg1142
I1743
sg1143
I644
sg1144
I92
sg1145
I4241
sg1146
I4185
sg1147
I1607
sg1148
I2555
sg1149
I4082
sg1150
I4487
sg1151
I4486
sg1152
I904
sg1153
I2237
sg1154
I2991
sg1155
I177
sg1156
I747
sg1157
I303
sg1158
I3954
sg1159
I53
sg1160
I4205
sg1161
I207
sg1162
I2931
sg1163
I1875
sg1164
I1798
sg1165
I2603
sg1166
I112
sg1167
I1243
sg1168
I2496
sg1169
I603
sg1170
I811
sg1171
I4572
sg1172
I2416
sg1173
I4542
sg1174
I3783
sg1175
I2188
sg1176
I3800
sg1177
I2371
sg1178
I718
sg1179
I2512
sg1180
I3888
sg1181
I145
sg1182
I688
sg1183
I519
sg1184
I631
sg1185
I3057
sg1186
I1224
sg1187
I4297
sg1188
I3548
sg1189
I2248
sg1190
I3815
sg1191
I2960
sg1192
I3132
sg1193
I4246
sg1194
I2298
sg1195
I2238
sg1196
I3946
sg1197
I4453
sg1198
I2198
sS'0'
I3266
sg1199
I3433
sg1200
I1629
sg1201
I3629
sg1202
I3290
sg1203
I3376
sg1204
I3011
sg1205
I2926
sg1206
I2683
sg1207
I1910
sg1208
I1176
sg1209
I830
sg1210
I3284
sg1211
I2124
sg1212
I4244
sg1213
I3599
sg1214
I2854
sg1215
I3578
sg1216
I3446
sg1217
I251
sg1218
I2482
sg1219
I1992
sg1220
I568
sg1221
I3250
sg1222
I3688
sg1223
I2563
sg1224
I3171
sg1225
I193
sg1226
I2208
sg1227
I1730
sg1228
I3092
sg1229
I3121
sg1230
I2835
sg1231
I3417
sS'p'
I214
sg1232
I2981
sg1233
I1771
sg1234
I553
sg1235
I1202
sg1236
I2221
sg1237
I681
sg1238
I3041
sg1239
I2786
sg1240
I4
sg1241
I2409
sg1242
I850
sg1243
I291
sg1244
I3545
sg1245
I3274
sg1246
I882
sg1247
I1653
sg1248
I2922
sg1249
I3277
sg1250
I1512
sg1251
I2890
sg1252
I2599
sg1253
I2684
sg1254
I3549
sg1255
I2476
sg1256
I2469
sg1257
I3631
sg1258
I392
sg1259
I3922
sg1260
I2528
sg1261
I1455
sg1262
I4098
sg1263
I898
sg1264
I926
sg1265
I320
sg1266
I1474
sg1267
I2541
sg1268
I1032
sg1269
I3653
sg1270
I3241
sg1271
I3844
sg1272
I3007
sg1273
I3395
sg1274
I1804
sg1275
I1609
sg1276
I1215
sg1277
I3430
sg1278
I2438
sg1279
I478
sg1280
I1810
sg1281
I2104
sg1282
I887
sg1283
I2800
sg1284
I1933
sg1285
I808
sg1286
I3093
sg1287
I2784
sg1288
I125
sg1289
I4303
sg1290
I4470
sg1291
I3090
sg1292
I1691
sg1293
I2096
sg1294
I1362
sg1295
I2293
sg1296
I2985
sg1297
I4338
sg1298
I3873
sg1299
I831
sg1300
I2092
sg1301
I2267
sg1302
I947
sg1303
I2095
sg1304
I7
sg1305
I2660
sg1306
I2497
sg1307
I2730
sg1308
I749
sg1309
I3817
sg1310
I1448
sg1311
I3807
sg1312
I4151
sg1313
I4353
sg1314
I3672
sg1315
I164
sg1316
I530
sg1317
I184
sg1318
I1436
sg1319
I4118
sg1320
I2000
sg1321
I517
sg1322
I11
sg1323
I465
sg1324
I3498
sg1325
I4443
sg1326
I1561
sg1327
I1133
sg1328
I2388
sg1329
I1185
sg1330
I4426
sg1331
I3517
sg1332
I1399
sg1333
I3772
sg1334
I229
sg1335
I3615
sg1336
I4161
sg1337
I2826
sg1338
I4079
sg1339
I1986
sg1340
I1263
sg1341
I2216
sg1342
I2585
sg1343
I3763
sg1344
I3002
sg1345
I3159
sg1346
I3175
sg1347
I1235
sg1348
I3853
sg1349
I1648
sg1350
I970
sg1351
I2477
sg1352
I3771
sg1353
I1004
sg1354
I1788
sg1355
I769
sg1356
I1655
sg1357
I2491
sg1358
I464
sg1359
I4599
sg1360
I2024
sg1361
I129
sg1362
I1472
sg1363
I1742
sg1364
I3756
sg1365
I4369
sg1366
I2617
sg1367
I3162
sg1368
I2235
sg1369
I2323
sg1370
I2828
sg1371
I1227
sg1372
I4116
sg1373
I3486
sg1374
I3139
sg1375
I3984
sg1376
I2317
sg1377
I4267
sg1378
I1471
sg1379
I2492
sg1380
I981
sg1381
I890
sg1382
I2072
sg1383
I1593
sg1384
I1545
sg1385
I2968
sg1386
I1542
sg1387
I1481
sg1388
I3197
sg1389
I3861
sg1390
I2337
sg1391
I3789
sg1392
I4305
sg1393
I4502
sg1394
I2526
sg1395
I70
sg1396
I2884
sS'1'
I892
sg1397
I2280
sg1398
I569
sg1399
I3493
sg1400
I929
sg1401
I518
sg1402
I3803
sg1403
I3568
sg1404
I1368
sg1405
I3719
sg1406
I1901
sg1407
I2522
sg1408
I1521
sg1409
I1086
sg1410
I1272
sg1411
I662
sg1412
I1801
sg1413
I2919
sg1414
I390
sg1415
I1449
sg1416
I930
sg1417
I2449
sg1418
I961
sg1419
I2788
sg1420
I1774
sg1421
I2431
sg1422
I1252
sg1423
I790
sg1424
I1964
sg1425
I852
sg1426
I829
sg1427
I3327
sg1428
I3612
sg1429
I3499
sg1430
I2122
sg1431
I3542
sg1432
I1336
sg1433
I3754
sg1434
I1826
sg1435
I1792
sg1436
I1854
sg1437
I1234
sg1438
I4373
sg1439
I3845
sg1440
I2212
sg1441
I2963
sg1442
I259
sg1443
I1533
sg1444
I3896
sg1445
I4081
sg1446
I4232
sg1447
I2283
sg1448
I1618
sg1449
I4069
sg1450
I3165
sg1451
I3406
sg1452
I1154
sg1453
I715
sg1454
I4222
sg1455
I1023
sg1456
I1329
sg1457
I1010
sg1458
I1261
sg1459
I1473
sg1460
I4102
sg1461
I581
sg1462
I851
sg1463
I386
sg1464
I1917
sg1465
I2538
sg1466
I1541
sg1467
I783
sg1468
I4242
sg1469
I2982
sg1470
I2098
sg1471
I4256
sg1472
I1821
sg1473
I4401
sg1474
I2370
sg1475
I375
sg1476
I3895
sg1477
I4110
sg1478
I2580
sg1479
I1818
sg1480
I2131
sg1481
I1139
sg1482
I1532
sg1483
I1814
sg1484
I725
sg1485
I2552
sg1486
I1825
sg1487
I3902
sg1488
I4326
sg1489
I3027
sg1490
I4087
sg1491
I528
sg1492
I327
sg1493
I1638
sg1494
I3869
sg1495
I3168
sg1496
I2812
sg1497
I3204
sg1498
I281
sg1499
I245
sg1500
I3472
sg1501
I1671
sg1502
I461
sg1503
I1489
sg1504
I3146
sg1505
I1727
sg1506
I637
sg1507
I3570
sg1508
I2478
sg1509
I1886
sg1510
I1174
sg1511
I345
sg1512
I1363
sg1513
I4319
sg1514
I1229
sg1515
I1445
sg1516
I1841
sg1517
I4196
sg1518
I1381
sS'h'
I3727
sg1519
I3497
sg1520
I910
sg1521
I2976
sg1522
I4596
sg1523
I4504
sg1524
I459
sg1525
I3683
sg1526
I1379
sg1527
I1621
sg1528
I2652
sg1529
I1371
sg1530
I1631
sg1531
I574
sg1532
I2160
sg1533
I1965
sg1534
I475
sg1535
I3617
sg1536
I608
sg1537
I3660
sg1538
I2798
sg1539
I3967
sg1540
I2729
sg1541
I1351
sg1542
I356
sg1543
I1632
sg1544
I1040
sg1545
I373
sg1546
I920
sg1547
I889
sg1548
I1644
sg1549
I4473
sg1550
I1301
sg1551
I1464
sg1552
I49
sg1553
I2808
sg1554
I4304
sg1555
I1310
sg1556
I2575
sg1557
I1462
sg1558
I1815
sg1559
I2356
sg1560
I1524
sg1561
I1840
sg1562
I4398
sg1563
I2049
sg1564
I510
sg1565
I601
sg1566
I1846
sg1567
I610
sg1568
I3452
sg1569
I132
sg1570
I793
sg1571
I2559
sg1572
I4515
sg1573
I1641
sg1574
I3597
sg1575
I3240
sg1576
I4048
sg1577
I2004
sg1578
I2913
sg1579
I4105
sg1580
I133
sg1581
I1625
sg1582
I3465
sg1583
I2465
sg1584
I2610
sg1585
I1784
sg1586
I1687
sg1587
I398
sg1588
I387
sg1589
I2770
sg1590
I607
sg1591
I3110
sg1592
I4335
sg1593
I2935
sg1594
I318
sg1595
I626
sg1596
I3551
sg1597
I3843
sg1598
I250
sg1599
I4171
sg1600
I903
sg1601
I2183
sg1602
I2905
sg1603
I1505
sg1604
I148
sg1605
I4172
sg1606
I2831
sg1607
I969
sg1608
I1137
sg1609
I1210
sg1610
I1839
sg1611
I182
sg1612
I3102
sg1613
I1863
sg1614
I240
sg1615
I750
sg1616
I1278
sg1617
I2093
sg1618
I1090
sg1619
I1905
sg1620
I2564
sg1621
I995
sg1622
I3630
sg1623
I549
sg1624
I4119
sg1625
I399
sg1626
I2588
sg1627
I1470
sS'2'
I891
sg1628
I3961
sg1629
I3228
sg1630
I2361
sg1631
I4386
sg1632
I4268
sg1633
I778
sg1634
I2176
sg1635
I753
sg1636
I870
sg1637
I2312
sg1638
I2967
sg1639
I2605
sg1640
I1007
sg1641
I22
sg1642
I2148
sg1643
I800
sg1644
I3221
sg1645
I2607
sg1646
I243
sg1647
I1553
sg1648
I3613
sg1649
I513
sg1650
I941
sg1651
I1925
sg1652
I2987
sg1653
I1734
sg1654
I416
sg1655
I2130
sg1656
I2896
sg1657
I643
sg1658
I540
sg1659
I211
sg1660
I913
sg1661
I1078
sg1662
I1077
sg1663
I958
sg1664
I1444
sg1665
I101
sg1666
I1678
sg1667
I1321
sg1668
I4441
sg1669
I3698
sg1670
I876
sg1671
I621
sg1672
I4314
sg1673
I253
sg1674
I2192
sg1675
I2230
sg1676
I106
sg1677
I2568
sg1678
I550
sg1679
I1159
sg1680
I1085
sg1681
I690
sg1682
I3860
sg1683
I1475
sg1684
I1697
sg1685
I2001
sg1686
I774
sg1687
I4474
sg1688
I3310
sg1689
I1225
sg1690
I1318
sg1691
I3480
sg1692
I3494
sg1693
I4524
sg1694
I1152
sg1695
I143
sg1696
I636
sg1697
I723
sg1698
I2749
sg1699
I694
sg1700
I727
sg1701
I673
sg1702
I3840
sg1703
I2560
sg1704
I4187
sg1705
I460
sg1706
I2100
sg1707
I255
sg1708
I605
sg1709
I3681
sg1710
I4138
sg1711
I4603
sg1712
I1465
sg1713
I964
sg1714
I2644
sg1715
I2003
sg1716
I4575
sg1717
I2029
sg1718
I1309
sg1719
I1339
sg1720
I618
sg1721
I1132
sg1722
I381
sg1723
I1245
sg1724
I4365
sg1725
I156
sg1726
I4311
sg1727
I88
sg1728
I1832
sg1729
I456
sg1730
I3712
sg1731
I2792
sg1732
I1835
sg1733
I3912
sg1734
I801
sg1735
I2059
sg1736
I1425
sg1737
I278
sg1738
I4153
sg1739
I2420
sg1740
I3585
sg1741
I999
sg1742
I4278
sg1743
I236
sg1744
I2731
sg1745
I716
sg1746
I1073
sg1747
I2579
sg1748
I1612
sg1749
I2391
sg1750
I27
sg1751
I1191
sg1752
I3020
sg1753
I3010
sg1754
I1048
sg1755
I963
sg1756
I1947
sg1757
I3610
sg1758
I1672
sg1759
I3684
sg1760
I1319
sg1761
I485
sg1762
I3743
sg1763
I845
sg1764
I3530
sg1765
I561
sg1766
I3303
sg1767
I2680
sg1768
I1387
sg1769
I4530
sg1770
I4068
sg1771
I2965
sg1772
I4219
sg1773
I1119
sg1774
I2012
sg1775
I3264
sg1776
I647
sg1777
I2606
sg1778
I2790
sg1779
I1928
sg1780
I1705
sg1781
I3673
sg1782
I2664
sg1783
I29
sg1784
I3032
sg1785
I4429
sg1786
I501
sg1787
I3670
sg1788
I3521
sg1789
I361
sg1790
I2880
sg1791
I2676
sg1792
I35
sg1793
I155
sg1794
I1145
sg1795
I2462
sg1796
I33
sg1797
I2825
sg1798
I3254
sg1799
I2043
sg1800
I1179
sg1801
I40
sg1802
I3130
sg1803
I3300
sg1804
I4287
sg1805
I604
sg1806
I1320
sg1807
I4164
sg1808
I3876
sg1809
I1149
sg1810
I2662
sg1811
I4165
sg1812
I1920
sg1813
I4484
sg1814
I1326
sg1815
I2577
sg1816
I2636
sg1817
I2540
sg1818
I2685
sg1819
I4532
sg1820
I2330
sg1821
I139
sg1822
I3289
sg1823
I1057
sg1824
I3167
sg1825
I3508
sg1826
I689
sg1827
I4073
sg1828
I3889
sg1829
I429
sg1830
I1190
sg1831
I4216
sg1832
I4240
sg1833
I2525
sg1834
I3920
sg1835
I4215
sg1836
I2993
sg1837
I1878
sg1838
I3268
sg1839
I3894
sg1840
I2893
sg1841
I784
sg1842
I720
sg1843
I1258
sg1844
I2063
sg1845
I1994
sg1846
I2776
sg1847
I802
sg1848
I4538
sg1849
I697
sg1850
I1288
sg1851
I4191
sg1852
I4513
sg1853
I2328
sg1854
I2346
sg1855
I149
sg1856
I1538
sg1857
I1286
sg1858
I3451
sg1859
I3458
sg1860
I2229
sS'3'
I948
sg1861
I3722
sg1862
I4188
sg1863
I777
sg1864
I3352
sg1865
I3482
sg1866
I1429
sg1867
I1468
sg1868
I3276
sg1869
I1198
sg1870
I4201
sg1871
I4514
sg1872
I1096
sg1873
I3117
sg1874
I3323
sg1875
I1230
sg1876
I1820
sg1877
I4414
sg1878
I3572
sg1879
I4243
sg1880
I3269
sg1881
I2144
sg1882
I872
sg1883
I2530
sg1884
I3025
sg1885
I3354
sg1886
I2038
sg1887
I4444
sg1888
I1106
sg1889
I616
sg1890
I294
sg1891
I1080
sg1892
I893
sg1893
I1400
sg1894
I1175
sg1895
I3825
sS's'
I47
sg1896
I3219
sg1897
I1127
sg1898
I1659
sg1899
I897
sg1900
I3196
sg1901
I1626
sg1902
I1293
sg1903
I307
sg1904
I1124
sg1905
I816
sg1906
I3056
sg1907
I3371
sg1908
I3484
sg1909
I2379
sg1910
I2845
sg1911
I3477
sg1912
I1287
sg1913
I3964
sg1914
I1151
sg1915
I3362
sg1916
I1082
sg1917
I1344
sg1918
I4094
sg1919
I1492
sg1920
I2671
sg1921
I1669
sg1922
I3363
sg1923
I1523
sg1924
I2760
sg1925
I2553
sg1926
I537
sg1927
I1257
sg1928
I3339
sg1929
I2048
sg1930
I1611
sg1931
I2587
sg1932
I588
sg1933
I1369
sg1934
I2925
sg1935
I1200
sg1936
I2623
sg1937
I623
sg1938
I232
sg1939
I4495
sg1940
I860
sg1941
I2061
sg1942
I2088
sg1943
I3412
sg1944
I1942
sg1945
I3760
sg1946
I366
sg1947
I1092
sg1948
I1790
sg1949
I979
sg1950
I1411
sg1951
I3338
sg1952
I3441
sg1953
I2621
sg1954
I2074
sg1955
I881
sg1956
I1554
sg1957
I2050
sg1958
I2615
sg1959
I3473
sg1960
I719
sg1961
I996
sg1962
I3730
sg1963
I2811
sg1964
I965
sg1965
I470
sg1966
I127
sg1967
I2247
sg1968
I267
sg1969
I79
sg1970
I4208
sg1971
I2840
sg1972
I3504
sg1973
I919
sg1974
I2149
sg1975
I120
sg1976
I483
sg1977
I23
sg1978
I2547
sg1979
I2265
sg1980
I4200
sg1981
I2363
sg1982
I4359
sg1983
I1013
sg1984
I3657
sg1985
I3940
sg1986
I4546
sg1987
I2735
sg1988
I1865
sg1989
I2823
sg1990
I4251
sS'j'
I2259
sg1991
I1869
sg1992
I2222
sg1993
I1811
sg1994
I2146
sg1995
I606
sg1996
I1094
sg1997
I2920
sg1998
I166
sg1999
I2503
sg2000
I880
sg2001
I3034
sg2002
I2269
sg2003
I1868
sg2004
I3076
sg2005
I4479
sg2006
I751
sg2007
I72
sg2008
I670
sg2009
I3794
sg2010
I42
sg2011
I2728
sg2012
I2846
sg2013
I4088
sg2014
I4520
sg2015
I331
sg2016
I4049
sg2017
I333
sg2018
I2737
sg2019
I1418
sg2020
I2720
sg2021
I1649
sg2022
I4602
sg2023
I4516
sg2024
I1241
sg2025
I3942
sg2026
I962
sg2027
I237
sg2028
I2838
sg2029
I3968
sg2030
I1828
sg2031
I730
sg2032
I1107
sg2033
I4404
sg2034
I4518
sg2035
I4456
sg2036
I3049
sg2037
I4509
sg2038
I3822
sg2039
I4026
sg2040
I4134
sg2041
I2822
sg2042
I1893
sg2043
I1764
sg2044
I619
sg2045
I4511
sg2046
I100
sg2047
I2340
sg2048
I4083
sg2049
I3340
sg2050
I527
sg2051
I2365
sg2052
I2930
sg2053
I3252
sg2054
I635
sg2055
I354
sg2056
I3929
sg2057
I1796
sg2058
I1393
sg2059
I2827
sg2060
I3671
sg2061
I2910
sg2062
I3855
sg2063
I3082
sg2064
I1740
sg2065
I1849
sg2066
I3366
sg2067
I843
sg2068
I4336
sg2069
I3785
sg2070
I879
sg2071
I3320
sg2072
I4361
sg2073
I2609
sg2074
I4076
sg2075
I3291
sg2076
I1359
sg2077
I1559
sg2078
I3347
sg2079
I503
sg2080
I1520
sg2081
I151
sg2082
I4106
sg2083
I1020
sg2084
I722
sg2085
I3379
sg2086
I4189
sS'4'
I213
sg2087
I4149
sg2088
I4211
sg2089
I4054
sg2090
I595
sg2091
I3036
sg2092
I391
sg2093
I4397
sg2094
I3589
sg2095
I203
sg2096
I3885
sg2097
I1862
sg2098
I675
sg2099
I4358
sg2100
I3697
sg2101
I3085
sg2102
I2179
sg2103
I144
sg2104
I241
sg2105
I3523
sg2106
I1237
sg2107
I3184
sg2108
I666
sg2109
I3811
sg2110
I3345
sg2111
I3623
sg2112
I864
sg2113
I3183
sg2114
I685
sg2115
I2145
sg2116
I3509
sg2117
I2358
sg2118
I543
sg2119
I759
sg2120
I3625
sg2121
I2181
sg2122
I2276
sg2123
I4279
sg2124
I16
sg2125
I1758
sg2126
I4591
sg2127
I4362
sg2128
I2153
sg2129
I1380
sg2130
I1602
sg2131
I2775
sg2132
I4539
sg2133
I4357
sg2134
I2762
sg2135
I1837
sg2136
I2820
sg2137
I1273
sg2138
I498
sg2139
I2005
sg2140
I2582
sg2141
I1404
sg2142
I2262
sg2143
I2978
sg2144
I2434
sg2145
I3935
sg2146
I1557
sg2147
I3009
sg2148
I65
sg2149
I2647
sg2150
I4176
sg2151
I3369
sg2152
I2439
sg2153
I4454
sg2154
I2672
sg2155
I1738
sg2156
I520
sg2157
I1072
sg2158
I3125
sg2159
I1627
sg2160
I1732
sg2161
I1424
sg2162
I2015
sg2163
I2483
sg2164
I4168
sg2165
I654
sg2166
I439
sg2167
I3316
sg2168
I3419
sg2169
I263
sg2170
I3506
sg2171
I3677
sg2172
I4583
sg2173
I943
sg2174
I1102
sg2175
I1126
sg2176
I3187
sg2177
I83
sg2178
I1268
sg2179
I3582
sg2180
I3053
sg2181
I4552
sg2182
I3987
sg2183
I3105
sg2184
I3006
sg2185
I630
sg2186
I430
sg2187
I4289
sg2188
I1002
sg2189
I4181
sg2190
I3208
sg2191
I18
sg2192
I3119
sg2193
I3962
sg2194
I3764
sg2195
I2878
sg2196
I3378
sg2197
I2218
sg2198
I2451
sg2199
I2252
sg2200
I1034
sg2201
I4580
sg2202
I4144
sg2203
I3930
sg2204
I4259
sg2205
I3485
sg2206
I4592
sg2207
I288
sg2208
I2764
sg2209
I2287
sg2210
I515
sg2211
I3647
sg2212
I2917
sg2213
I683
sg2214
I2071
sg2215
I780
sg2216
I3142
sg2217
I1045
sg2218
I4255
sg2219
I1130
sg2220
I304
sg2221
I1503
sg2222
I591
sg2223
I4027
sg2224
I667
sg2225
I4339
sg2226
I4368
sg2227
I266
sg2228
I2424
sg2229
I3735
sg2230
I4523
sg2231
I2079
sg2232
I1367
sg2233
I655
sg2234
I1414
sg2235
I4494
sg2236
I701
sg2237
I1392
sg2238
I3603
sg2239
I3862
sg2240
I4135
sg2241
I3833
sg2242
I1058
sg2243
I325
sg2244
I2155
sg2245
I1188
sg2246
I2888
sg2247
I4328
sg2248
I364
sg2249
I197
sg2250
I3644
sg2251
I4137
sg2252
I2809
sg2253
I3141
sg2254
I2405
sg2255
I1898
sg2256
I1403
sg2257
I633
sg2258
I4037
sg2259
I2422
sg2260
I111
sg2261
I1426
sg2262
I1739
sg2263
I846
sg2264
I806
sg2265
I1767
sg2266
I1166
sg2267
I2927
sg2268
I90
sg2269
I1483
sg2270
I142
sg2271
I837
sg2272
I3111
sg2273
I1128
sg2274
I3801
sg2275
I1563
sg2276
I3507
sg2277
I1565
sg2278
I1290
sg2279
I3275
sg2280
I1715
sg2281
I1747
sg2282
I2099
sg2283
I2899
sg2284
I1186
sg2285
I2699
sg2286
I1054
sg2287
I3080
sS'5'
I141
sg2288
I406
sg2289
I2554
sg2290
I1858
sg2291
I2381
sg2292
I3173
sg2293
I785
sg2294
I3249
sg2295
I4231
sg2296
I2941
sg2297
I51
sg2298
I2950
sg2299
I3865
sg2300
I2372
sg2301
I3715
sg2302
I2085
sg2303
I577
sg2304
I1525
sg2305
I3748
sg2306
I1005
sg2307
I1162
sg2308
I2508
sg2309
I2177
sg2310
I3598
sg2311
I4059
sg2312
I474
sg2313
I301
sg2314
I2867
sg2315
I2415
sg2316
I3826
sg2317
I760
sg2318
I3854
sg2319
I4029
sg2320
I4313
sg2321
I2534
sS'u'
I907
sg2322
I2454
sg2323
I3790
sg2324
I3420
sg2325
I2486
sg2326
I1876
sg2327
I5
sg2328
I4400
sg2329
I4496
sg2330
I3086
sg2331
I334
sg2332
I2843
sg2333
I4526
sg2334
I1892
sg2335
I2578
sg2336
I922
sg2337
I1180
sg2338
I3188
sg2339
I4389
sg2340
I511
sg2341
I3088
sg2342
I1289
sg2343
I3552
sg2344
I1961
sg2345
I2387
sg2346
I4547
sg2347
I4340
sg2348
I235
sg2349
I2426
sg2350
I976
sg2351
I3648
sg2352
I30
sg2353
I1652
sg2354
I1654
sg2355
I2821
sg2356
I4507
sg2357
I2202
sg2358
I3135
sg2359
I2803
sg2360
I3096
sg2361
I3176
sg2362
I2852
sg2363
I3541
sg2364
I3215
sg2365
I4431
sg2366
I736
sg2367
I3305
sg2368
I3950
sg2369
I3244
sg2370
I3596
sg2371
I397
sg2372
I273
sg2373
I3178
sg2374
I4002
sg2375
I2677
sg2376
I3632
sg2377
I4333
sg2378
I2021
sg2379
I3850
sg2380
I3960
sg2381
I1695
sg2382
I973
sg2383
I3846
sg2384
I2217
sg2385
I1434
sg2386
I916
sg2387
I2708
sg2388
I484
sg2389
I632
sg2390
I1494
sg2391
I180
sg2392
I4406
sg2393
I2612
sg2394
I4306
sg2395
I2908
sg2396
I1831
sg2397
I332
sg2398
I1537
sg2399
I651
sg2400
I4540
sg2401
I2777
sg2402
I3947
sg2403
I2901
sg2404
I322
sg2405
I274
sg2406
I3614
sg2407
I594
sg2408
I2669
sg2409
I2249
sg2410
I183
sg2411
I2682
sg2412
I4445
sg2413
I2161
sg2414
I3410
sg2415
I2721
sg2416
I1415
sg2417
I2231
sg2418
I3829
sg2419
I3400
sg2420
I257
sg2421
I1213
sg2422
I863
sg2423
I2747
sg2424
I277
sg2425
I2429
sg2426
I3848
sg2427
I2204
sg2428
I2789
sg2429
I2243
sg2430
I988
sg2431
I2936
sg2432
I293
sg2433
I1936
sg2434
I3246
sg2435
I1454
sg2436
I921
sg2437
I4458
sg2438
I2128
sg2439
I19
sg2440
I1663
sg2441
I1112
sg2442
I319
sg2443
I1598
sg2444
I1733
sg2445
I3045
sg2446
I157
sg2447
I1726
sg2448
I466
sg2449
I1089
sg2450
I1203
sg2451
I1860
sg2452
I1193
sg2453
I2244
sg2454
I3841
sg2455
I172
sg2456
I3605
sg2457
I1169
sg2458
I1683
sg2459
I2696
sg2460
I2479
sg2461
I2447
sg2462
I1022
sg2463
I1677
sg2464
I3428
sg2465
I1971
sg2466
I3418
sg2467
I2818
sg2468
I4214
sg2469
I3416
sg2470
I2974
sg2471
I3356
sg2472
I4309
sg2473
I4195
sg2474
I4099
sg2475
I1390
sg2476
I4010
sg2477
I563
sg2478
I2523
sg2479
I3033
sg2480
I3301
sS'6'
I638
sg2481
I1212
sg2482
I1171
sg2483
I41
sg2484
I415
sg2485
I3319
sg2486
I3965
sg2487
I1813
sg2488
I896
sg2489
I3220
sg2490
I4131
sg2491
I2484
sg2492
I4078
sg2493
I4589
sg2494
I980
sg2495
I1998
sg2496
I326
sg2497
I3540
sg2498
I3271
sg2499
I705
sg2500
I2165
sg2501
I972
sg2502
I4254
sg2503
I2466
sg2504
I2341
sg2505
I834
sg2506
I2203
sg2507
I2301
sg2508
I4573
sg2509
I4036
sg2510
I2505
sg2511
I951
sg2512
I2902
sg2513
I1479
sS'v'
I4483
sg2514
I256
sg2515
I3736
sg2516
I2515
sg2517
I1650
sg2518
I4080
sg2519
I614
sg2520
I1894
sg2521
I4325
sg2522
I2924
sg2523
I2958
sg2524
I3824
sg2525
I894
sg2526
I1703
sg2527
I3004
sg2528
I573
sg2529
I2321
sg2530
I868
sg2531
I1568
sg2532
I967
sg2533
I2574
sg2534
I2956
sg2535
I4529
sg2536
I3882
sg2537
I134
sg2538
I444
sg2539
I4579
sg2540
I3068
sg2541
I2322
sg2542
I875
sg2543
I1467
sg2544
I2989
sg2545
I3367
sg2546
I653
sg2547
I593
sg2548
I4351
sg2549
I431
sg2550
I952
sg2551
I1269
sg2552
I4492
sg2553
I4064
sg2554
I3253
sg2555
I3210
sg2556
I1313
sg2557
I4493
sg2558
I1334
sg2559
I3593
sg2560
I1769
sg2561
I1889
sg2562
I1562
sg2563
I4223
sg2564
I4152
sg2565
I2271
sg2566
I664
sg2567
I3103
sg2568
I3608
sg2569
I2848
sg2570
I3921
sg2571
I432
sg2572
I4298
sS'a'
I93
sg2573
I886
sg2574
I3741
sg2575
I3813
sg2576
I2741
sg2577
I3287
sg2578
I2011
sg2579
I2663
sg2580
I3077
sg2581
I2586
sg2582
I1617
sg2583
I2413
sg2584
I1148
sg2585
I3917
sg2586
I2473
sg2587
I3821
sg2588
I2877
sg2589
I2460
sg2590
I1555
sg2591
I338
sg2592
I3094
sg2593
I493
sg2594
I188
sg2595
I2945
sg2596
I562
sg2597
I449
sg2598
I2724
sg2599
I69
sg2600
I1216
sg2601
I4090
sg2602
I1812
sg2603
I1516
sg2604
I1797
sg2605
I3491
sg2606
I271
sg2607
I3304
sg2608
I862
sg2609
I861
sg2610
I895
sg2611
I1104
sg2612
I67
sg2613
I1765
sg2614
I841
sg2615
I798
sg2616
I1056
sg2617
I4403
sg2618
I2152
sg2619
I711
sg2620
I1879
sg2621
I317
sg2622
I4432
sg2623
I1093
sg2624
I487
sg2625
I1674
sg2626
I4266
sg2627
I669
sg2628
I3081
sg2629
I3397
sg2630
I2633
sg2631
I570
sg2632
I826
sg2633
I1049
sg2634
I3577
sg2635
I3725
sg2636
I3280
sg2637
I3059
sg2638
I2036
sg2639
I4349
sg2640
I3903
sg2641
I1795
sg2642
I4490
sg2643
I1571
sg2644
I2354
sg2645
I2475
sg2646
I4155
sg2647
I3786
sg2648
I1550
sg2649
I4380
sg2650
I3581
sg2651
I4427
sg2652
I2863
sg2653
I351
sg2654
I1861
sg2655
I2017
sg2656
I4457
sg2657
I3099
sg2658
I3013
sg2659
I4499
sg2660
I1728
sg2661
I4154
sg2662
I1419
sg2663
I1366
sg2664
I2640
sg2665
I768
sg2666
I1342
sg2667
I2600
sg2668
I1684
sg2669
I165
sg2670
I2333
sg2671
I4086
sg2672
I2205
sg2673
I1163
sg2674
I3638
sg2675
I535
sg2676
I1038
sg2677
I1291
sg2678
I4108
sg2679
I1458
sg2680
I3798
sg2681
I2502
sg2682
I3235
sg2683
I585
sg2684
I2309
sg2685
I2345
sg2686
I2734
sg2687
I1189
sg2688
I3976
sg2689
I3634
sg2690
I2772
sg2691
I405
sg2692
I3543
sg2693
I2200
sg2694
I2335
sg2695
I1408
sg2696
I1266
sg2697
I159
sS'7'
I956
sg2698
I3399
sg2699
I3645
sg2700
I20
sg2701
I254
sg2702
I4437
sg2703
I987
sg2704
I3192
sg2705
I2019
sg2706
I1457
sg2707
I4182
sg2708
I167
sg2709
I2544
sg2710
I3202
sg2711
I2979
sg2712
I2736
sg2713
I3223
sg2714
I2507
sg2715
I847
sg2716
I1173
sg2717
I1308
sg2718
I682
sg2719
I4476
sg2720
I1420
sg2721
I2704
sg2722
I3701
sg2723
I1642
sg2724
I2213
sg2725
I3977
sg2726
I3538
sg2727
I4605
sg2728
I4541
sg2729
I2116
sg2730
I3944
sg2731
I1488
sg2732
I4175
sg2733
I656
sg2734
I3231
sg2735
I1830
sg2736
I4416
sg2737
I4206
sg2738
I1859
sg2739
I3749
sg2740
I556
sg2741
I3971
sg2742
I200
sg2743
I384
sg2744
I2014
sg2745
I4604
sg2746
I4355
sg2747
I1753
sg2748
I3306
sg2749
I3564
sg2750
I2514
sg2751
I575
sg2752
I1944
sg2753
I2396
sg2754
I1620
sg2755
I2187
sg2756
I1990
sg2757
I2923
sg2758
I2567
sg2759
I3387
sg2760
I692
sg2761
I4364
sg2762
I1895
sg2763
I3426
sg2764
I2753
sg2765
I735
sg2766
I2394
sg2767
I3909
sg2768
I1440
sg2769
I1577
sg2770
I2441
sg2771
I1966
sg2772
I247
sg2773
I2228
sg2774
I4577
sg2775
I102
sg2776
I1737
sg2777
I2378
sg2778
I2972
sg2779
I4315
sg2780
I917
sg2781
I703
sg2782
I3939
sg2783
I3636
sg2784
I389
sg2785
I915
sg2786
I2490
sg2787
I3226
sg2788
I3732
sg2789
I763
sg2790
I3474
sg2791
I2998
sg2792
I4481
sg2793
I163
sS'b'
I1065
sg2794
I2665
sg2795
I4286
sg2796
I4142
sg2797
I298
sg2798
I3685
sg2799
I3814
sg2800
I3149
sg2801
I1244
sg2802
I3333
sg2803
I1689
sg2804
I4133
sg2805
I2679
sg2806
I1131
sg2807
I4402
sg2808
I1517
sg2809
I3693
sg2810
I4290
sg2811
I899
sg2812
I4271
sg2813
I2517
sg2814
I2327
sg2815
I2440
sg2816
I4005
sg2817
I1276
sg2818
I3659
sg2819
I2668
sg2820
I2041
sg2821
I1427
sg2822
I1819
sg2823
I1575
sg2824
I906
sg2825
I1000
sg2826
I3619
sg2827
I109
sg2828
I3752
sg2829
I2876
sg2830
I3510
sg2831
I2778
sg2832
I3641
sg2833
I2376
sg2834
I865
sg2835
I2620
sg2836
I3709
sg2837
I481
sg2838
I3838
sg2839
I1941
sg2840
I471
sg2841
I4409
sg2842
I4198
sg2843
I4235
sg2844
I3373
sg2845
I2076
sg2846
I2625
sg2847
I584
sg2848
I1608
sg2849
I1946
sg2850
I2056
sg2851
I709
sg2852
I3444
sg2853
I1409
sg2854
I1923
sg2855
I1312
sg2856
I3172
sg2857
I3995
sg2858
I1083
sg2859
I900
sg2860
I4056
sg2861
I1744
sg2862
I45
sg2863
I1006
sg2864
I1195
sg2865
I1806
sg2866
I2601
sg2867
I2105
sg2868
I1207
sg2869
I2657
sg2870
I1017
sg2871
I2629
sg2872
I592
sg2873
I1097
sg2874
I2688
sg2875
I2042
sg2876
I4550
sg2877
I3326
sg2878
I557
sg2879
I1311
sg2880
I1938
sg2881
I3820
sg2882
I3731
sg2883
I3292
sg2884
I4012
sg2885
I299
sg2886
I1456
sg2887
I208
sg2888
I2232
sg2889
I372
sg2890
I3880
sg2891
I613
sg2892
I3161
sg2893
I64
sg2894
I2658
sg2895
I3475
sg2896
I3330
sg2897
I1690
sg2898
I2928
sg2899
I1417
sg2900
I1634
sg2901
I2604
sg2902
I186
sg2903
I2576
sg2904
I1633
sg2905
I2392
sg2906
I687
sg2907
I4275
sg2908
I4252
sg2909
I4075
sg2910
I2499
sg2911
I2701
sg2912
I3026
sg2913
I1803
sg2914
I4264
sg2915
I2423
sg2916
I2670
sg2917
I1556
sg2918
I3089
sg2919
I2069
sg2920
I1068
sg2921
I1762
sg2922
I2411
sS'8'
I901
sg2923
I1018
sg2924
I1160
sg2925
I552
sg2926
I600
sg2927
I491
sg2928
I579
sg2929
I908
sg2930
I248
sg2931
I4159
sg2932
I2091
sg2933
I4489
sg2934
I44
sg2935
I4346
sg2936
I3733
sg2937
I2129
sg2938
I1515
sg2939
I1932
sg2940
I1881
sg2941
I2284
sg2942
I239
sg2943
I1848
sg2944
I825
sg2945
I3618
sg2946
I3662
sg2947
I796
sg2948
I576
sg2949
I4329
sg2950
I2673
sg2951
I2765
sg2952
I3298
sg2953
I1613
sg2954
I3217
sg2955
I1720
sg2956
I1240
sg2957
I2885
sg2958
I4549
sg2959
I226
sg2960
I4327
sg2961
I2832
sg2962
I853
sg2963
I4147
sg2964
I403
sg2965
I3974
sg2966
I2796
sg2967
I1383
sg2968
I4379
sg2969
I3386
sg2970
I1757
sg2971
I401
sg2972
I191
sg2973
I1914
sg2974
I85
sg2975
I3265
sg2976
I3746
sg2977
I1622
sg2978
I1834
sg2979
I4296
sg2980
I957
sg2981
I4121
sg2982
I4531
sg2983
I4016
sg2984
I2266
sg2985
I1084
sg2986
I1246
sg2987
I3409
sg2988
I4248
sg2989
I3652
sg2990
I787
sg2991
I3573
sg2992
I2596
sg2993
I766
sg2994
I1827
sg2995
I2637
sg2996
I1384
sg2997
I565
sg2998
I2002
sg2999
I1423
sg3000
I1091
sg3001
I1770
sg3002
I86
sg3003
I3462
sg3004
I3892
sg3005
I4485
sg3006
I732
sg3007
I1567
sg3008
I3060
sg3009
I3536
sg3010
I4533
sg3011
I3193
sg3012
I560
sS'c'
I1519
sg3013
I2940
sg3014
I220
sg3015
I3831
sg3016
I2133
sg3017
I4376
sg3018
I4107
sg3019
I2109
sg3020
I4015
sg3021
I1283
sg3022
I2997
sg3023
I4173
sg3024
I2859
sg3025
I2702
sg3026
I1585
sg3027
I388
sg3028
I1866
sg3029
I3242
sg3030
I1140
sg3031
I1980
sg3032
I408
sg3033
I1916
sg3034
I442
sg3035
I1548
sg3036
I4125
sg3037
I1373
sg3038
I3061
sg3039
I4272
sg3040
I4053
sg3041
I2999
sg3042
I1063
sg3043
I424
sg3044
I2355
sg3045
I4263
sg3046
I3978
sg3047
I1435
sg3048
I2697
sg3049
I4277
sg3050
I3864
sg3051
I3951
sg3052
I3675
sg3053
I2817
sg3054
I2746
sg3055
I744
sg3056
I2718
sg3057
I807
sg3058
I1277
sg3059
I2171
sg3060
I126
sg3061
I3953
sg3062
I1979
sg3063
I2938
sg3064
I440
sg3065
I3555
sg3066
I275
sg3067
I312
sg3068
I1510
sg3069
I2080
sg3070
I425
sg3071
I4148
sg3072
I2632
sg3073
I3432
sg3074
I712
sg3075
I771
sg3076
I1307
sg3077
I2506
sg3078
I1355
sg3079
I1361
sg3080
I3299
sg3081
I1970
sg3082
I1108
sg3083
I1463
sg3084
I2934
sg3085
I2055
sg3086
I1303
sg3087
I3201
sg3088
I839
sg3089
I1643
sg3090
I2524
sg3091
I578
sg3092
I3674
sg3093
I761
sg3094
I28
sg3095
I2860
sg3096
I2944
sg3097
I1365
sg3098
I728
sg3099
I1590
sg3100
I2591
sg3101
I3554
sg3102
I4555
sg3103
I3453
sg3104
I856
sg3105
I1637
sg3106
I3858
sg3107
I1345
sg3108
I1926
sg3109
I2164
sg3110
I2804
sg3111
I1493
sg3112
I4410
sg3113
I1167
sg3114
I3091
sg3115
I1487
sg3116
I1845
sg3117
I3133
sg3118
I260
sg3119
I3012
sg3120
I3436
sg3121
I3587
sg3122
I2223
sg3123
I1968
sg3124
I3609
sg3125
I3740
sg3126
I3770
sg3127
I2918
sg3128
I3466
sg3129
I4230
sg3130
I3710
sg3131
I4023
sg3132
I3780
sg3133
I3255
sS'9'
I639
sg3134
I2195
sg3135
I282
sg3136
I1500
sg3137
I2034
sg3138
I3039
sg3139
I10
sg3140
I2342
sg3141
I4247
sg3142
I3945
sg3143
I217
sg3144
I2744
sg3145
I2971
sg3146
I3182
sg3147
I1838
sg3148
I205
sg3149
I4178
sg3150
I4044
sg3151
I4020
sg3152
I1749
sg3153
I1547
sg3154
I3000
sg3155
I73
sg3156
I2277
sg3157
I3191
sg3158
I99
sg3159
I1673
sg3160
I3900
sg3161
I3427
sg3162
I1019
sg3163
I4117
sg3164
I4190
sS'y'
I3511
sg3165
I1950
sg3166
I4283
sg3167
I1619
sg3168
I4160
sg3169
I4051
sg3170
I4468
sg3171
I1745
sg3172
I2558
sg3173
I625
sg3174
I4594
sg3175
I3959
sg3176
I617
sg3177
I3778
sg3178
I809
sg3179
I2739
sg3180
I3887
sg3181
I3588
sg3182
I2065
sg3183
I2239
sg3184
I4074
sg3185
I2904
sg3186
I2810
sg3187
I1300
sg3188
I3169
sg3189
I4071
sg3190
I77
sg3191
I3259
sg3192
I1322
sg3193
I3471
sg3194
I3852
sg3195
I4415
sg3196
I1003
sg3197
I3718
sg3198
I169
sg3199
I2245
sg3200
I2215
sg3201
I4092
sg3202
I4544
sg3203
I1640
sg3204
I2750
sg3205
I1529
sg3206
I1439
sg3207
I2401
sg3208
I4050
sg3209
I918
sg3210
I2725
sg3211
I2535
sg3212
I4377
sg3213
I174
sg3214
I1168
sg3215
I3750
sg3216
I4435
sg3217
I567
sg3218
I859
sg3219
I1441
sg3220
I4285
sg3221
I3633
sg3222
I3526
sg3223
I4101
sg3224
I3120
sg3225
I2158
sg3226
I4424
sS'd'
I1231
sg3227
I4228
sg3228
I2829
sg3229
I4558
sg3230
I3055
sg3231
I502
sg3232
I457
sg3233
I1155
sg3234
I3642
sg3235
I1594
sg3236
I2990
sg3237
I4488
sg3238
I4480
sg3239
I3318
sg3240
I4588
sg3241
I1802
sg3242
I313
sg3243
I3759
sg3244
I663
sg3245
I885
sg3246
I4233
sg3247
I3189
sg3248
I1385
sg3249
I2032
sg3250
I292
sg3251
I3470
sg3252
I2445
sg3253
I2288
sg3254
I1459
sg3255
I2815
sg3256
I3729
sg3257
I2771
sg3258
I3381
sg3259
I646
sg3260
I1877
sg3261
I968
sg3262
I1657
sg3263
I2883
sg3264
I4548
sg3265
I3651
sg3266
I2334
sg3267
I2410
sg3268
I2326
sS't'
I1066
sg3269
I24
sg3270
I3539
sg3271
I2325
sg3272
I435
sg3273
I4047
sg3274
I4179
sg3275
I3558
sg3276
I1596
sg3277
I525
sg3278
I2285
sg3279
I960
sg3280
I2955
sg3281
I321
sg3282
I1772
sg3283
I4146
sg3284
I1864
sg3285
I3546
sg3286
I3781
sg3287
I3622
sg3288
I3943
sg3289
I2952
sg3290
I13
sg3291
I1099
sg3292
I4571
sg3293
I3181
sg3294
I3795
sg3295
I1722
sg3296
I2425
sg3297
I443
sg3298
I368
sg3299
I3624
sg3300
I2715
sg3301
I3983
sg3302
I2468
sg3303
I2437
sg3304
I1250
sg3305
I1395
sg3306
I1805
sg3307
I2210
sg3308
I270
sg3309
I2113
sg3310
I3567
sg3311
I1543
sg3312
I2674
sg3313
I3401
sg3314
I3357
sg3315
I2589
sg3316
I3414
sg3317
I1551
sg3318
I1785
sg3319
I258
sg3320
I4031
sg3321
I3559
sg3322
I2761
sg3323
I3751
sg3324
I668
sg3325
I1129
sg3326
I63
sg3327
I2054
sg3328
I360
sg3329
I158
sg3330
I3527
sg3331
I2763
sg3332
I2650
sg3333
I131
sg3334
I2881
sg3335
I2634
sg3336
I4384
sg3337
I3867
sg3338
I3140
sg3339
I170
sg3340
I3058
sg3341
I4030
sg3342
I3353
sg3343
I1196
sg3344
I813
sg3345
I3576
sg3346
I611
sg3347
I4226
sg3348
I1249
sg3349
I1651
sg3350
I2959
sg3351
I1343
sg3352
I1560
sg3353
I2639
sg3354
I9
sg3355
I645
sg3356
I4465
sg3357
I3812
sg3358
I1711
sg3359
I140
sg3360
I310
sg3361
I3283
sg3362
I204
sg3363
I1432
sg3364
I2511
sg3365
I1904
sg3366
I3028
sg3367
I4455
sg3368
I3311
sg3369
I2126
sg3370
I849
sg3371
I1358
sg3372
I3997
sg3373
I4225
sg3374
I2694
sg3375
I2616
sg3376
I276
sg3377
I3385
sg3378
I1748
sg3379
I2687
sg3380
I3127
sg3381
I3992
sg3382
I3550
sg3383
I2007
sg3384
I2850
sg3385
I2169
sg3386
I4139
sg3387
I1184
sg3388
I3566
sg3389
I2241
sg3390
I2268
sg3391
I4063
sg3392
I2766
sg3393
I4009
sg3394
I4220
sg3395
I4281
sg3396
I2705
sg3397
I4536
sg3398
I3883
sg3399
I833
sg3400
I3571
sg3401
I4269
sg3402
I1929
sg3403
I418
sg3404
I3380
sg3405
I3158
sg3406
I946
sg3407
I2031
sg3408
I2806
sg3409
I3678
sg3410
I1074
sg3411
I2643
sg3412
I4464
sg3413
I3835
sg3414
I4322
sg3415
I541
sg3416
I1317
sg3417
I1800
sg3418
I4447
sg3419
I698
sg3420
I1682
sg3421
I1586
sg3422
I1490
sg3423
I3272
sg3424
I3989
sg3425
I3970
sg3426
I1172
sg3427
I3979
sg3428
I571
sS'e'
I4399
sg3429
I3832
sg3430
I1948
sg3431
I4261
sg3432
I2319
sg3433
I1431
sg3434
I2137
sg3435
I4570
sg3436
I2193
sg3437
I2443
sg3438
I4505
sg3439
I2142
sg3440
I78
sg3441
I14
sg3442
I867
sg3443
I2562
sg3444
I3936
sg3445
I1466
sg3446
I54
sg3447
I927
sg3448
I3958
sg3449
I1046
sg3450
I216
sg3451
I402
sg3452
I3696
sg3453
I1453
sg3454
I2992
sg3455
I3308
sg3456
I4062
sg3457
I32
sg3458
I3699
sg3459
I1280
sg3460
I2706
sg3461
I2752
sg3462
I3186
sg3463
I3994
sg3464
I4425
sg3465
I3205
sg3466
I1375
sg3467
I3487
sg3468
I2030
sg3469
I2159
sg3470
I2543
sg3471
I3116
sg3472
I4321
sg3473
I1714
sg3474
I2094
sg3475
I2173
sg3476
I336
sg3477
I4581
sg3478
I1872
sg3479
I1823
sg3480
I3804
sg3481
I2709
sg3482
I2240
sg3483
I1105
sg3484
I3528
sg3485
I1616
sg3486
I3398
sg3487
I4213
sg3488
I842
sg3489
I2549
sg3490
I1597
sg3491
I4310
sg3492
I1927
sg3493
I1095
sg3494
I2258
sg3495
I1761
sg3496
I3819
sg3497
I463
sg3498
I3336
sg3499
I4482
sg3500
I3074
sg3501
I3621
sg3502
I3317
sg3503
I1991
sg3504
I1710
sg3505
I2681
sg3506
I1794
sg3507
I4136
sg3508
I3468
sg3509
I2255
sg3510
I113
sg3511
I2836
sg3512
I2839
sg3513
I2581
sg3514
I3714
sg3515
I2755
sg3516
I3923
sg3517
I1028
sg3518
I3190
sg3519
I3143
sg3520
I1497
sg3521
I231
sg3522
I634
sg3523
I4584
sg3524
I2869
sg3525
I3024
sg3526
I3915
sg3527
I1896
sg3528
I2865
sg3529
I12
sg3530
I3952
sg3531
I176
sg3532
I4236
sg3533
I4183
sg3534
I1995
sg3535
I4293
sg3536
I1026
sg3537
I3664
sg3538
I1117
sg3539
I2308
sg3540
I212
sg3541
I3676
sg3542
I1791
sg3543
I1573
sg3544
I4145
sg3545
I1088
sg3546
I2500
sg3547
I3237
sg3548
I3905
sg3549
I3278
sg3550
I3270
sg3551
I469
sg3552
I2654
sg3553
I4348
sg3554
I949
sg3555
I3288
sg3556
I1779
sg3557
I52
sg3558
I3294
sg3559
I2937
sg3560
I937
sg3561
I103
sg3562
I3868
sg3563
I3047
sg3564
I3112
sg3565
I2060
sg3566
I2656
sg3567
I2488
sg3568
I3875
sg3569
I1887
sg3570
I1723
sg3571
I3128
sg3572
I3985
sg3573
I1036
sg3574
I3669
sg3575
I507
sg3576
I4569
sg3577
I3694
sg3578
I854
sg3579
I2270
sg3580
I3207
sg3581
I714
sg3582
I428
sg3583
I2797
sg3584
I3818
sg3585
I4270
sg3586
I526
sg3587
I2368
sg3588
I4405
sg3589
I3445
sg3590
I329
sg3591
I1165
sg3592
I4035
sg3593
I2364
sg3594
I118
sg3595
I4018
sg3596
I1332
sg3597
I3872
sg3598
I306
sg3599
I729
sg3600
I8
sg3601
I2101
sg3602
I1254
sg3603
I4378
sg3604
I450
sg3605
I4412
sg3606
I2018
sg3607
I2339
sg3608
I1081
sg3609
I173
sg3610
I2853
sg3611
I620
sg3612
I3502
sg3613
I1546
sg3614
I2170
sg3615
I2855
sg3616
I2533
sg3617
I1113
sg3618
I153
sg3619
I26
sg3620
I986
sg3621
I494
sg3622
I2168
sg3623
I4060
sg3624
I3260
sg3625
I1115
sg3626
I4295
sg3627
I786
sg3628
I1499
sg3629
I3547
sg3630
I1531
sg3631
I2851
sg3632
I2455
sg3633
I3620
sg3634
I2108
sg3635
I2732
sg3636
I512
sg3637
I2961
sg3638
I2013
sg3639
I2590
sg3640
I57
sg3641
I3341
sg3642
I189
sg3643
I1660
sg3644
I3686
sg3645
I4253
sg3646
I1008
sg3647
I3553
sg3648
I2834
sg3649
I414
sg3650
I873
sg3651
I2272
sg3652
I2102
sg3653
I1282
sg3654
I2655
sg3655
I1754
sg3656
I3500
sg3657
I1983
sg3658
I400
sg3659
I1264
sg3660
I797
sg3661
I2112
sg3662
I4192
sg3663
I2348
sg3664
I4038
sg3665
I3583
sg3666
I1194
sg3667
I1884
sg3668
I3805
sg3669
I2521
sg3670
I3773
sg3671
I4070
sg3672
I4385
sg3673
I3122
sg3674
I2474
sg3675
I3245
sg3676
I1274
sg3677
I1199
sg3678
I2282
sg3679
I3199
sg3680
I2733
sg3681
I3495
sg3682
I836
sg3683
I676
sg3684
I984
sg3685
I1890
sg3686
I3179
sg3687
I1187
sg3688
I2493
sg3689
I385
sg3690
I3827
sg3691
I3897
sg3692
I1981
sg3693
I4419
sg3694
I3924
sg3695
I2897
sg3696
I1873
sg3697
I2773
sg3698
I4442
sg3699
I4276
sg3700
I3849
sg3701
I827
sg3702
I1305
sg3703
I1759
sg3704
I3799
sg3705
I3519
sg3706
I1856
sg3707
I4294
sg3708
I3503
sg3709
I1915
sg3710
I495
sg3711
I4318
sg3712
I138
sg3713
I3908
sg3714
I87
sg3715
I4177
sg3716
I25
sg3717
I3515
sg3718
I4508
sg3719
I1324
sg3720
I2485
sg3721
I1430
sg3722
I355
sg3723
I130
sg3724
I2911
sg3725
I3981
sg3726
I3423
sg3727
I2385
sg3728
I3225
sg3729
I598
sg3730
I249
sg3731
I696
sg3732
I4282
sg3733
I3185
sg3734
I928
sg3735
I2051
sg3736
I3859
sg3737
I117
sg3738
I3391
sg3739
I505
sg3740
I4418
sg3741
I1972
sg3742
I3071
sg3743
I2064
sg3744
I105
sg3745
I3766
sg3746
I2294
sg3747
I3847
sg3748
I2504
sg3749
I1717
sg3750
I3218
sg3751
I196
sg3752
I2121
sg3753
I2712
sg3754
I1871
sg3755
I555
sg3756
I4265
sg3757
I2162
sg3758
I4221
sg3759
I2107
sg3760
I1122
sg3761
I2872
sg3762
I305
sg3763
I985
sg3764
I2489
sg3765
I1853
sg3766
I2256
sg3767
I3123
sg3768
I1718
sg3769
I3779
sg3770
I691
sg3771
I4460
sg3772
I1574
sg3773
I3248
sg3774
I2689
sg3775
I4560
sg3776
I110
sg3777
I1852
sg3778
I3279
sg3779
I4576
sg3780
I2628
sg3781
I286
sg3782
I3293
sg3783
I2138
sg3784
I2404
sg3785
I3481
sg3786
I2403
sg3787
I1236
sg3788
I1662
sg3789
I4567
sg3790
I3691
sg3791
I4562
sg3792
I3501
sg3793
I1315
sg3794
I2236
sg3795
I1527
sg3796
I1883
sg3797
I2281
sg3798
I417
sg3799
I4046
sg3800
I2414
sg3801
I3926
sg3802
I1218
sg3803
I902
sg3804
I1676
sg3805
I1039
sg3806
I1606
sg3807
I2028
sg3808
I521
sg3809
I178
sg3810
I857
sg3811
I2224
sg3812
I4593
sS"'"
I548
sg3813
I4120
sg3814
I2661
sg3815
I2390
sg3816
I4284
sg3817
I2106
sg3818
I3925
sg3819
I1930
sg3820
I3329
sg3821
I4019
sg3822
I4217
sg3823
I104
sg3824
I2556
sg3825
I1850
sg3826
I2542
sg3827
I1029
sg3828
I84
sg3829
I4366
sg3830
I1857
sg3831
I2894
sg3832
I4065
sg3833
I1777
sg3834
I2862
sg3835
I1949
sg3836
I2703
sg3837
I4067
sg3838
I1630
sg3839
I2584
sg3840
I775
sg3841
I2774
sg3842
I2406
sg3843
I1912
sg3844
I3758
sg3845
I1156
sg3846
I4345
sg3847
I2891
sg3848
I1775
sS'g'
I2233
sg3849
I3870
sg3850
I121
sg3851
I2837
sg3852
I394
sg3853
I1125
sg3854
I4227
sg3855
I2207
sg3856
I4104
sg3857
I1353
sg3858
I500
sg3859
I1781
sg3860
I3324
sg3861
I4312
sg3862
I2619
sg3863
I3998
sg3864
I1719
sg3865
I3999
sg3866
I1793
sg3867
I3097
sg3868
I2932
sg3869
I407
sg3870
I2767
sg3871
I2082
sg3872
I4034
sg3873
I2157
sg3874
I814
sg3875
I477
sg3876
I866
sg3877
I3626
sg3878
I2595
sg3879
I4317
sg3880
I3206
sg3881
I3364
sg3882
I1327
sg3883
I2386
sg3884
I2432
sg3885
I4212
sg3886
I4039
sg3887
I58
sg3888
I1829
sg3889
I2052
sg3890
I187
sg3891
I4150
sg3892
I4011
sg3893
I3828
sg3894
I4467
sg3895
I4123
sg3896
I3721
sg3897
I3029
sg3898
I812
sg3899
I4042
sg3900
I2592
sg3901
I580
sg3902
I590
sg3903
I347
sg3904
I2191
sg3905
I3393
sg3906
I480
sg3907
I4438
sg3908
I2201
sg3909
I2813
sg3910
I1584
sg3911
I1647
sg3912
I1624
sg3913
I4250
sg3914
I523
sg3915
I3863
sg3916
I3996
sg3917
I1146
sg3918
I3489
sg3919
I1402
sg3920
I3665
sg3921
I2331
sg3922
I1138
sg3923
I2302
sg3924
I1902
sg3925
I2758
sg3926
I3937
sg3927
I924
sg3928
I3834
sg3929
I1076
sg3930
I3761
sg3931
I3851
sg3932
I4156
sg3933
I4174
sg3934
I3437
sg3935
I4093
sg3936
I704
sg3937
I3461
sg3938
I124
sg3939
I2874
sg3940
I335
sg3941
I4387
sg3942
I2111
sg3943
I3394
sg3944
I95
sg3945
I2436
sg3946
I3402
sg3947
I4395
sg3948
I1558
sg3949
I3382
sg3950
I2118
sg3951
I37
sg3952
I346
sg3953
I3579
sg3954
I2954
sg3955
I422
sg3956
I1940
sg3957
I3022
sg3958
I71
sg3959
I2782
sg3960
I2399
sg3961
I4450
sg3962
I3407
sg3963
I2206
sg3964
I2251
sg3965
I36
sg3966
I2948
sg3967
I489
sg3968
I2933
sg3969
I858
sg3970
I1356
sg3971
I838
sg3972
I2132
sg3973
I2570
sg3974
I4224
sg3975
I1438
sg3976
I693
sg3977
I4381
sg3978
I300
sg3979
I1843
sg3980
I4551
sg3981
I4528
sg3982
I3777
sg3983
I3913
sg3984
I1780
sg3985
I1725
sg3986
I1147
sg3987
I2349
sg3988
I2045
sg3989
I4334
sg3990
I3692
sg3991
I308
sg3992
I4582
sg3993
I3904
sg3994
I4129
sg3995
I2290
sg3996
I3941
sg3997
I822
sg3998
I3616
sg3999
I788
sg4000
I1900
sg4001
I1952
sg4002
I2561
sg4003
I2713
sg4004
I2127
sg4005
I194
sg4006
I4274
sg4007
I4574
sg4008
I3478
sg4009
I2889
sg4010
I3460
sg4011
I2174
sg4012
I210
sg4013
I330
sg4014
I1480
sg4015
I1999
sg4016
I4344
sg4017
I3877
sg4018
I1956
sg4019
I4501
sg4020
I923
sg4021
I3307
sg4022
I3874
sg4023
I3695
sg4024
I840
sg4025
I362
sg4026
I2070
sg4027
I3321
sg4028
I311
sg4029
I2393
sg4030
I871
sg4031
I3607
sg4032
I1741
sg4033
I2667
sg4034
I3180
sg4035
I508
sg4036
I150
sg4037
I4052
sg4038
I181
sg4039
I3469
sg4040
I2046
sg4041
I1681
sg4042
I2382
sg4043
I1899
sg4044
I3837
sg4045
I3505
sg4046
I3562
sg4047
I558
sg4048
I122
sg4049
I1855
sg4050
I358
sg4051
I1398
sg4052
I1388
sg4053
I4449
sg4054
I2510
sg4055
I2745
sg4056
I3144
sg4057
I3263
sg4058
I3098
sg4059
I1931
sg4060
I3627
sg4061
I3690
sg4062
I1491
sg4063
I746
sg4064
I4472
sg4065
I3955
sg4066
I1323
sg4067
I2275
sg4068
I2226
sg4069
I2143
sg4070
I782
sg4071
I3734
sg4072
I378
sg4073
I1177
sg4074
I1701
sg4075
I1110
sg4076
I4014
sg4077
I2279
sg4078
I2086
sg4079
I559
sg4080
I3788
sg4081
I3842
sg4082
I1969
sg4083
I1021
sg4084
I1208
sg4085
I2805
sg4086
I4140
sg4087
I1446
sg4088
I4500
sg4089
I3878
sg4090
I1391
sg4091
I3001
sg4092
I622
sg4093
I1052
sg4094
I1679
sg4095
I234
sg4096
I2537
sg4097
I1993
sg4098
I2565
sg4099
I363
sg4100
I4167
sg4101
I3972
sg4102
I4393
sg4103
I4193
sg4104
I4471
sg4105
I1582
sg4106
I1161
sg4107
I2780
sg4108
I4077
sg4109
I3700
sg4110
I792
sg4111
I3802
sg4112
I4535
sg4113
I1913
sg4114
I3666
sg4115
I2648
sg4116
I2008
sg4117
I1062
sg4118
I3898
sg4119
I2421
sg4120
I1331
sg4121
I3991
sg4122
I4417
sg4123
I2675
sg4124
I752
sg4125
I1708
sg4126
I628
sg4127
I2117
sg4128
I2866
sg4129
I2598
sg4130
I820
sg4131
I2453
sg4132
I447
sg4133
I2389
sg4134
I3389
sg4135
I3656
sg4136
I2984
sg4137
I3309
sg4138
I1030
sg4139
I3358
sg4140
I4543
sg4141
I1809
sg4142
I3796
sg4143
I3823
sg4144
I4218
sg4145
I1694
sg4146
I285
sg4147
I252
sg4148
I997
sg4149
I1988
sg4150
I2649
sg4151
I2700
sg4152
I1667
sg4153
I4045
sg4154
I794
sg4155
I2642
sg4156
I2807
sg4157
I2023
sg4158
I566
sg4159
I3975
sg4160
I227
sg4161
I2907
sg4162
I3267
sg4163
I3762
sg4164
I4430
sg4165
I4434
sg4166
I1357
sg4167
I3879
sg4168
I3431
sg4169
I2716
sg4170
I4055
sg4171
I2903
sg4172
I3214
sg4173
I2026
sg4174
I3680
sg4175
I3337
sg4176
I146
sg4177
I4130
sg4178
I4066
sg4179
I3857
sg4180
I762
sg4181
I1447
sg4182
I671
sg4183
I2900
sg4184
I745
sg4185
I2035
sg4186
I1271
sg4187
I2929
sg4188
I2066
sg4189
I1766
sg4190
I3910
sg4191
I3015
sg4192
I4308
sg4193
I2690
sg4194
I536
sg4195
I1922
sg4196
I15
sg4197
I1136
sg4198
I4517
sg4199
I2569
sg4200
I3438
sg4201
I4199
sg4202
I1111
sg4203
I4292
sg4204
I4408
sg4205
I2419
sg4206
I2178
sg4207
I3784
sg4208
I410
sg4209
I2199
sg4210
I453
sg4211
I3405
sg4212
I1668
sg4213
I1178
sg4214
I4554
sg4215
I412
sg4216
I1109
sg4217
I2947
sg4218
I3286
sg4219
I1978
sg4220
I2816
sg4221
I3372
sg4222
I1421
sg4223
I328
sg4224
I2374
sg4225
I2962
sg4226
I2090
sg4227
I2027
sg4228
I3403
sg4229
I1433
sg4230
I2630
sg4231
I3212
sg4232
I3463
sg4233
I230
sg4234
I2653
sg4235
I2768
sg4236
I4122
sg4237
I3483
sg4238
I3312
sg4239
I3516
sg4240
I3687
sg4241
I352
sg4242
I1222
sg4243
I4330
sg4244
I3442
sg4245
I2306
sg4246
I2545
sg4247
I2369
sg4248
I4204
sg4249
I531
sg4250
I2402
sg4251
I1628
sg4252
I4194
sg4253
I3079
sg4254
I1588
sg4255
I3938
sg4256
I824
sg4257
I1688
sg4258
I3650
sg4259
I678
sg4260
I4169
sg4261
I4162
sg4262
I1589
sg4263
I4280
sg4264
I3040
sg4265
I2824
sg4266
I1953
sg4267
I4428
sg4268
I4320
sg4269
I4363
sg4270
I89
sg4271
I1143
sg4272
I2220
sS'i'
I737
sg4273
I4207
sg4274
I679
sg4275
I1069
sg4276
I2300
sg4277
I1442
sg4278
I966
sg4279
I2184
sg4280
I602
sg4281
I2123
sg4282
I4383
sg4283
I154
sg4284
I909
sg4285
I2307
sg4286
I1656
sg4287
I3100
sg4288
I2707
sg4289
I496
sg4290
I1338
sg4291
I4003
sg4292
I4300
sg4293
I1506
sg4294
I3136
sg4295
I993
sg4296
I4600
sg4297
I726
sg4298
I4001
sg4299
I3048
sg4300
I3355
sg4301
I3148
sg4302
I2986
sg4303
I3713
sg4304
I3351
sg4305
I2743
sg4306
I179
sg4307
I3490
sg4308
I1386
sg4309
I2906
sg4310
I1071
sg4311
I3753
sg4312
I2194
sg4313
I3839
sg4314
I955
sg4315
I3348
sg4316
I1260
sg4317
I115
sg4318
I1989
sg4319
I4127
sg4320
I1934
sg4321
I3744
sg4322
I1328
sg4323
I1120
sg4324
I1731
sg4325
I1059
sg4326
I3281
sg4327
I97
sg4328
I3667
sg4329
I2257
sg4330
I413
sg4331
I3392
sg4332
I3440
sg4333
I1692
sg4334
I2448
sg4335
I3726
sg4336
I4420
sg4337
I1509
sg4338
I650
sg4339
I295
sg4340
I953
sg4341
I3933
sg4342
I4100
sg4343
I2209
sg4344
I1181
sg4345
I3745
sg4346
I3787
sg4347
I147
sg4348
I748
sg4349
I572
sg4350
I3513
sg4351
I353
sg4352
I2417
sg4353
I1501
sg4354
I2975
sg4355
I1880
sg4356
I1959
sg4357
I1214
sg4358
I2150
sg4359
I3209
sg4360
I2946
sg4361
I3742
sg4362
I2311
sg4363
I2373
sg4364
I3806
sg4365
I441
sg4366
I2951
sg4367
I1763
sg4368
I4433
sg4369
I2125
sg4370
I2532
sg4371
I990
sg4372
I2970
sg4373
I2949
sg4374
I1595
sg4375
I1680
sg4376
I3580
sg4377
I4323
sg4378
I2646
sg4379
I597
sg4380
I2546
sg4381
I3031
sg4382
I2033
sg4383
I2914
sg4384
I2185
sg4385
I3590
sg4386
I3054
sg4387
I3893
sg4388
I589
sg4389
I1817
sg4390
I1123
sg4391
I1050
sg4392
I3586
sg4393
I3017
sg4394
I4374
sg4395
I2214
sg4396
I4375
sg4397
I137
sg4398
I2879
sg4399
I2025
sg4400
I3457
sg4401
I1041
sg4402
I2362
sg4403
I4565
sg4404
I4257
sg4405
I4128
sg4406
I1031
sg4407
I2110
sg4408
I2444
sg4409
I1664
sg4410
I4273
sg4411
I3087
sg4412
I3537
sg4413
I4497
sg4414
I1955
sg4415
I2320
sg4416
I3456
sg4417
I765
sg4418
I1511
sg4419
I3728
sg4420
I4512
sg4421
I1504
sg4422
I1696
sg4423
I3315
sg4424
I296
sg4425
I2638
sg4426
I1450
sg4427
I855
sg4428
I357
sg4429
I3774
sg4430
I1569
sg4431
I1262
sg4432
I3809
sg4433
I1217
sg4434
I3439
sg4435
I4209
sg4436
I1296
sg4437
I3649
sg4438
I1255
sg4439
I3095
sg4440
I1205
sg4441
I1985
sg4442
I420
sg4443
I423
sg4444
I4024
sg4445
I135
sg4446
I2037
sg4447
I516
sg4448
I731
sg4449
I3349
sg4450
I944
sg4451
I2412
sg4452
I1729
sg4453
I3388
sg4454
I3646
sg4455
I2887
sg4456
I1015
sg4457
I3563
sg4458
I2942
sg4459
I2367
sg4460
I4522
sg4461
I199
sg4462
I2075
sg4463
I434
sg4464
I2857
sg4465
I1716
sg4466
I2313
sg4467
I201
sg4468
I2529
sg4469
I2303
sg4470
I2316
sg4471
I2613
sg4472
I1984
sg4473
I936
sg4474
I3157
sg4475
I2464
sg4476
I4007
sg4477
I1279
sg4478
I3928
sg4479
I1443
sg4480
I2921
sg4481
I2614
sg4482
I1786
sg4483
I283
sg4484
I4245
sg4485
I2375
sg4486
I4477
sg4487
I977
sg4488
I3129
sg4489
I4288
sg4490
I2520
sg4491
I3450
sg4492
I344
sg4493
I2225
sg4494
I76
sg4495
I3661
sg4496
I695
sg4497
I2452
sg4498
I933
sg4499
I3611
sg4500
I1183
sg4501
I284
sg4502
I2147
sg4503
I2916
sg4504
I4367
sg4505
I82
sg4506
I1292
sg4507
I1824
sg4508
I877
sg4509
I452
sg4510
I1256
sg4511
I2572
sg4512
I2969
sg4513
I3602
sg4514
I224
sg4515
I3018
sg4516
I1134
sg4517
I1699
sg4518
I2769
sg4519
I94
sg4520
I2608
sg4521
I1079
sg4522
I2190
sg4523
I3738
sg4524
I742
sg4525
I2626
sg4526
I1958
sg4527
I3956
sg4528
I1746
sg4529
I1016
sg4530
I2058
sg4531
I4316
sg4532
I934
sg4533
I4229
sg4534
I3703
sg4535
I3194
sg4536
I1751
sg4537
I3073
sg4538
I529
sg4539
I3342
sg4540
I209
sg4541
I2189
sg4542
I1768
sg4543
I2756
sg4544
I884
sg4545
I4057
sg4546
I724
sg4547
I1787
sg4548
I1580
sg4549
I2292
sg4550
I1170
sg4551
I504
sg4552
I1540
sg4553
I954
sg4554
I905
sg4555
I1055
sg4556
I4527
sg4557
I1935
sg4558
I1044
sg4559
I3421
sg4560
I931
sg4561
I708
sg4562
I551
sg4563
I279
sg4564
I2513
sg4565
I599
sg4566
I324
sg4567
I4462
sg4568
I2693
sg4569
I4032
sg4570
I2467
sg4571
I3377
sg4572
I3601
sg4573
I2717
sg4574
I2151
sg4575
I3739
sg4576
I2795
sg4577
I2254
sg4578
I707
sg4579
I3793
sg4580
I3569
sg4581
I2757
sg4582
I3524
sg4583
I2501
sg4584
I3534
sg4585
I2714
sg4586
I1539
sg4587
I3052
sg4588
I3166
sg4589
I1778
sg4590
I1405
sg4591
I4157
sg4592
I1924
ssS'_reverse_mapping'
p4595
(lp4596
g12
ag871
ag72
ag174
ag1240
ag2327
ag750
ag1304
ag3600
ag3354
ag3139
ag1322
ag3529
ag3290
ag3441
ag4196
ag2124
ag351
ag2191
ag2439
ag2700
ag712
ag1641
ag1977
ag3269
ag3716
ag3619
ag1750
ag3094
ag1783
ag2352
ag444
ag3457
ag1796
ag83
ag1792
ag3965
ag3951
ag729
ag945
ag1801
ag2483
ag2010
ag839
ag2934
ag2862
ag824
aS's'
aS'l'
ag1552
ag280
ag2297
ag3557
ag1159
ag3446
ag398
ag423
ag3640
ag3887
ag1062
ag105
ag299
ag241
ag3326
ag2893
ag2148
ag448
ag2612
ag1023
ag2599
ag1395
ag3958
ag2007
ag3155
ag766
ag467
ag4494
ag3190
ag3440
ag1969
ag291
ag647
ag4505
ag2177
ag3828
ag2974
ag3002
ag3714
ag1727
ag4270
ag2268
ag815
ag1144
aS'a'
ag4519
ag3944
ag792
ag4327
ag438
ag3158
ag2046
ag1665
ag2775
ag3561
ag3823
ag3744
ag1676
ag813
ag81
ag2827
ag3776
ag2260
ag1166
ag3510
ag1087
ag4317
ag531
ag3737
ag3594
ag188
ag1975
ag3850
ag4048
ag695
ag3938
ag1288
ag3060
ag1966
ag315
ag1361
ag3723
ag3333
ag1569
ag1580
ag2537
ag4445
ag1052
ag4397
ag3712
ag1821
ag3359
aS'5'
ag2270
ag1695
ag2103
ag1181
ag4176
ag4347
ag1604
ag1855
ag4036
ag2081
ag210
ag3618
ag4283
ag1793
ag1725
ag2446
ag3329
ag2697
ag827
ag345
ag239
ag2793
ag1315
ag2669
ag1998
ag2708
ag476
ag3198
ag3339
ag722
ag2455
ag3609
ag3213
ag1001
ag3531
ag1155
ag3809
ag4306
ag2391
ag4038
ag1611
ag2410
ag1317
ag879
ag2902
ag3890
ag2594
ag3642
ag319
ag2972
ag755
ag1225
ag4005
ag272
ag3751
ag2249
ag427
ag4461
ag2742
ag4467
ag184
ag2095
ag3362
ag3148
ag88
ag1161
ag2887
ag4540
ag4012
ag1659
ag3540
aS'4'
aS'p'
aS'm'
ag3450
ag3143
ag901
ag797
ag3014
ag949
ag312
ag874
ag4514
ag1009
ag2959
ag4160
ag933
ag1334
ag4233
ag3521
ag1938
ag1015
ag4095
ag2348
ag1743
ag2027
ag333
ag2942
ag1614
ag2104
ag372
ag1646
ag668
ag1499
ag1129
ag2772
ag2930
ag3730
ag1598
ag1217
ag4147
ag1673
ag2701
ag1707
ag2514
ag2420
ag3319
ag1442
ag3118
ag973
ag229
ag2169
ag846
ag1010
ag2227
ag1968
ag332
ag364
ag3308
ag2606
ag407
ag2372
ag2405
ag3066
ag3376
ag2424
ag1737
ag4563
ag1060
ag1498
ag3135
ag4483
ag4501
ag4146
ag3781
ag602
ag2207
ag183
ag99
ag1243
ag3250
ag2432
ag1890
ag4339
ag4424
ag716
ag2797
ag2885
ag3978
ag2313
ag304
ag1157
ag2220
ag3762
ag3598
ag1903
ag3991
ag753
ag3360
ag4028
ag3067
ag3242
ag392
ag761
ag468
ag2621
ag1594
ag2442
ag1265
ag3281
ag2404
ag442
ag4566
ag2243
ag2496
ag1492
ag4223
ag3590
ag4013
ag2015
ag2397
ag2017
ag2331
ag3940
ag3476
ag1039
ag2591
ag717
ag724
ag636
ag1007
ag482
ag4492
ag1511
ag3952
ag3903
ag762
ag887
ag128
ag2653
ag4241
ag4351
ag2055
ag3722
ag1542
ag4428
ag4050
ag1033
ag3328
ag1789
ag4025
ag4099
ag2248
ag440
ag1946
ag1024
ag3298
ag162
ag279
ag527
ag2889
ag1545
ag142
ag1475
ag224
ag523
ag4072
ag121
ag530
ag1722
ag859
ag981
ag2743
ag3689
ag1463
ag1588
ag3027
ag2784
ag1414
ag2092
ag1258
ag760
ag3852
ag982
ag581
ag2371
ag1587
ag1625
ag3658
ag2971
ag3451
ag2964
ag979
ag2691
ag2288
ag3869
ag3032
ag1084
ag4208
ag137
ag4215
ag4330
ag3649
ag2484
ag1654
ag3798
ag3403
ag1049
ag4442
ag691
ag3955
ag4443
ag3043
ag3070
ag835
ag525
ag3582
ag1829
ag2186
ag2549
ag2571
ag711
ag4463
ag3272
ag270
ag359
ag156
ag2166
ag3064
ag4365
ag3034
ag3297
ag2538
ag679
ag969
ag4132
ag134
ag2597
ag3604
ag526
ag4509
ag4210
ag285
ag631
ag1729
ag3232
ag516
ag1524
ag1705
ag1502
ag209
ag3497
ag1358
ag1323
ag2448
ag218
ag39
ag3551
ag1965
ag2840
ag808
ag141
ag2312
ag1534
ag517
ag3875
ag1279
ag575
ag3906
ag2837
ag1128
ag1976
ag2388
ag1761
ag697
ag2624
ag225
ag3967
ag673
ag2927
ag1002
ag2593
ag3621
ag3710
ag4289
ag471
ag2138
ag278
ag3858
ag1786
ag3231
ag2079
ag4551
ag3739
ag721
ag3575
ag4035
ag85
ag1564
ag2340
ag3636
ag1649
ag826
ag2210
ag4447
ag1321
ag1401
ag1183
ag2156
ag3808
ag873
ag3914
ag74
ag3277
ag3586
ag2050
ag1491
ag4538
ag1316
ag4249
ag108
ag1013
ag944
ag2675
ag4194
ag1926
ag744
ag882
ag1658
ag3415
ag227
ag2118
ag310
ag800
ag367
ag889
aS"'"
ag1623
ag1678
ag4562
ag2925
ag1234
ag814
ag3755
ag2740
ag2878
ag4047
ag4079
ag3012
ag1765
ag2596
ag2477
ag727
ag2997
ag4158
ag3217
ag1220
ag1398
ag2631
ag3428
ag4349
ag2528
ag1531
ag2751
ag2948
ag2303
ag3091
ag2928
ag3901
ag1461
ag609
ag403
ag2847
ag2683
ag18
ag22
ag1932
ag4388
ag3902
ag2222
ag2872
ag2547
ag2407
ag2090
ag809
ag4379
ag3729
ag4565
ag2926
ag1565
ag4280
ag1169
ag1805
ag1708
ag1995
ag1590
ag1536
ag383
ag1567
ag3346
ag292
ag2891
ag2519
ag684
ag1889
ag3176
ag1720
ag2044
ag3611
ag1671
ag4092
ag1937
ag952
ag3173
ag1595
ag419
ag4126
ag1036
ag2185
ag1184
ag2389
ag2257
ag3522
ag2054
ag1696
ag1506
aS'6'
aS'9'
aS'k'
ag974
ag397
ag1657
ag1143
ag3355
ag3259
ag1776
ag781
ag437
ag4338
ag2399
ag366
ag2546
ag2165
ag2233
ag2733
ag67
ag1014
ag286
ag494
ag237
ag1411
ag3244
ag2566
ag1058
ag2108
ag2224
ag3324
ag2627
ag2008
ag4182
ag1104
ag1701
ag387
ag2098
ag3683
ag146
ag4259
ag4274
ag52
ag1237
ag2718
ag2213
ag324
ag2114
ag583
ag2906
ag1182
ag1826
ag1681
ag3770
ag2760
ag3976
ag1699
ag4496
ag3731
ag1849
ag3419
ag637
ag469
ag2236
ag220
ag2781
ag3936
ag2499
ag157
ag4578
ag4561
ag2851
ag1091
ag2619
ag3074
ag483
ag3581
ag1453
ag1745
ag1111
ag1178
ag1960
ag1842
ag313
ag2084
ag1697
ag4546
ag1484
ag4297
ag1700
ag3098
ag3599
ag2031
ag4448
ag3006
ag1011
ag906
ag2765
ag2366
aS'i'
ag610
ag497
ag615
ag916
ag4524
ag589
ag3055
ag4184
ag4063
ag1156
ag4348
ag1308
ag1615
ag2006
ag4124
ag1635
ag851
ag613
ag102
ag353
ag70
ag2119
ag2317
ag3093
ag4180
ag2789
ag535
ag4417
ag2993
ag748
ag2665
ag1355
ag318
ag3075
ag704
ag1048
ag1686
ag3840
ag912
ag1863
ag1633
ag1040
ag2215
ag915
ag4070
ag1467
ag1841
ag2293
ag3627
ag2990
ag3999
ag910
ag1423
ag228
ag4110
ag1570
ag4154
ag902
ag2947
ag3660
ag2615
ag847
ag1643
ag1734
ag1847
ag429
ag380
ag934
ag2264
ag3057
ag1285
ag3178
ag500
ag1170
ag3898
ag3344
ag3874
ag574
ag1905
ag908
ag644
ag80
ag4130
ag297
ag3997
ag247
ag4256
ag2944
ag2632
ag3701
ag713
ag1426
ag1209
ag1299
ag255
ag3399
ag2505
ag872
ag3682
ag2271
ag3971
ag3088
ag4024
ag2614
ag3488
ag2067
ag616
ag1763
ag2263
ag2715
ag316
ag3370
ag1242
ag1462
ag1425
ag2962
ag3578
ag4427
ag3104
ag3810
ag3969
ag3218
ag1940
ag2609
ag2608
ag2422
ag2112
ag2834
ag3876
ag3442
ag2530
ag765
ag1636
ag4030
ag1882
ag3650
ag1054
ag2542
ag1670
ag4508
ag957
ag2070
ag2000
ag1955
ag1246
ag118
ag4544
ag3245
ag2573
ag1282
ag1051
ag1547
ag1381
aS'2'
aS'1'
ag1892
ag2525
ag2610
ag2488
ag1899
ag1263
ag2811
ag2859
aS'8'
ag3803
ag1600
ag1152
ag4554
ag2824
aS'u'
ag2929
ag4284
ag1520
ag145
ag415
ag1660
ag623
ag2785
ag2386
ag2780
ag3209
ag1973
ag1546
ag2436
ag2336
ag4020
ag3927
ag55
ag1264
ag3447
ag3734
ag1400
ag1416
ag4560
ag510
ag4498
ag4532
ag78
ag4473
ag3560
ag942
ag457
ag669
ag1650
ag678
ag2173
ag4450
ag106
ag3406
ag1302
aS'3'
ag3554
ag199
ag2511
ag2550
ag4340
ag4553
ag4314
aS'7'
ag2980
ag1663
ag622
ag3279
ag1418
ag2026
ag1755
ag1713
ag1964
ag4278
ag2532
ag3261
ag1607
ag1350
ag335
ag2501
ag2382
ag959
ag31
ag2350
ag4487
ag548
ag1949
ag2494
ag1380
ag309
ag972
ag3684
ag3763
ag3620
ag2703
ag2430
ag524
ag4371
ag267
ag379
ag4295
ag369
ag1621
ag1961
ag4148
ag82
ag1741
ag2825
ag576
ag2188
ag3196
ag1353
ag2306
ag2863
ag1640
ag3646
ag273
ag1457
ag573
ag1127
ag1983
ag214
ag4456
ag4529
ag2870
ag2923
ag3162
ag2083
ag4083
ag2462
ag1455
ag115
ag588
ag3536
ag129
ag3517
ag3827
ag4138
ag4406
ag1268
ag546
ag2200
ag956
ag3573
ag876
ag2676
ag3805
ag1544
ag4401
ag1105
ag303
ag4558
ag2217
ag3449
ag812
ag1754
ag2633
ag4391
ag45
ag4093
ag254
ag2286
ag4555
ag2616
ag1823
ag2242
ag4325
ag896
ag50
ag4117
ag3042
ag922
aS'b'
aS't'
ag151
ag2920
ag4275
ag683
ag4310
ag2157
ag1746
ag3410
ag579
ag3929
ag1662
ag1661
ag4521
ag1891
ag3608
ag1916
ag2858
ag2985
ag1680
ag1409
ag478
ag3545
ag2449
ag1618
ag3000
ag1947
ag2623
ag1996
ag3493
ag1872
ag2873
ag884
ag3291
ag20
ag675
ag2174
ag428
ag2611
ag3483
ag1888
ag2032
ag3082
ag4216
ag4075
ag4202
ag2441
ag3617
ag927
ag3625
ag1046
ag3538
ag747
ag1773
ag4323
ag301
ag3760
ag4390
ag1904
ag3853
ag2175
ag1897
ag2273
ag3325
ag2219
ag2806
ag1721
ag1327
ag4516
ag34
ag4197
ag1608
ag3922
ag1481
ag3030
ag266
ag830
ag4271
ag1125
ag1794
ag3917
ag3986
ag2584
ag1809
ag687
ag1914
ag1694
ag857
ag1452
ag3233
ag3845
ag638
ag997
ag1679
ag2924
ag4106
ag2307
ag2673
ag1077
ag3591
ag2266
ag3113
ag3214
ag2457
ag4550
ag2482
ag3426
ag2716
ag1510
ag1894
ag1208
ag4073
ag4213
ag1800
ag2337
ag4344
ag759
ag4500
ag3387
ag1329
ag2284
ag3687
ag2245
ag2687
ag1830
ag1751
ag42
ag2452
ag3666
ag2864
ag3343
ag238
ag1869
ag3677
ag1935
ag877
ag1235
ag2450
ag1050
ag4440
ag65
ag2868
ag4084
ag804
ag1609
ag768
ag2481
ag2421
ag4357
ag1276
ag2600
ag4433
ag3802
ag709
ag152
ag607
ag4242
ag563
ag1186
ag1689
ag963
ag1371
ag559
ag1514
ag1875
aS'd'
ag515
ag626
ag1437
ag1347
ag3787
ag2106
ag96
ag958
ag2956
ag2024
ag1018
ag1167
ag2801
ag1723
ag2986
ag657
ag89
ag3348
ag3304
ag656
ag1422
ag33
ag3602
ag4438
ag4510
ag1927
ag1843
ag192
ag4316
ag1458
ag4431
ag1340
ag3659
ag693
ag2696
ag362
ag2178
ag2551
ag919
ag4186
ag1410
ag2137
ag3676
ag885
ag2817
ag3058
ag1616
ag4477
ag3459
ag232
ag3653
ag3021
ag466
ag698
ag1857
ag1912
ag1850
ag2342
ag2278
ag2677
ag4506
ag1902
ag321
ag688
ag4436
ag484
ag648
ag1071
ag3187
ag1550
ag773
ag3086
ag100
ag3702
ag187
ag3076
ag2717
ag1718
ag1555
ag2879
ag2855
ag2556
ag327
ag3793
ag41
ag3416
ag1690
ag1760
ag1806
ag1667
ag3192
ag4066
ag3719
ag1072
ag1814
ag3882
ag4322
ag1456
ag806
ag4120
ag3596
ag996
ag2558
ag841
ag1432
ag561
ag4290
ag1719
ag1003
ag302
ag2666
ag3351
ag1917
ag3107
ag231
ag757
ag325
ag1005
ag170
ag1541
ag53
ag3857
ag948
ag3078
ag3970
ag4166
ag3371
ag2076
ag1109
ag3079
ag1294
ag1512
ag161
ag3097
ag2663
ag2232
ag1404
ag1933
ag557
ag1529
ag848
ag3037
ag160
ag3466
ag36
ag378
ag462
ag1526
ag2129
ag1518
ag451
ag2967
ag2996
ag3248
ag4308
ag1768
ag4052
ag219
ag2475
ag4090
ag2237
ag2058
ag653
ag3305
ag960
ag940
ag4051
ag1332
ag1893
ag155
ag3919
ag2256
ag2141
ag4590
ag1000
ag198
ag2695
ag2853
ag276
ag1950
ag111
ag95
ag2234
ag2416
ag393
ag2899
ag2019
ag2662
ag2720
ag4222
ag439
ag2999
ag2161
ag1736
ag2261
ag2821
ag787
ag1866
ag3721
ag3433
ag3363
ag4229
ag2385
ag3047
ag1318
ag764
ag3975
ag3206
ag2768
ag3219
ag4277
ag4479
ag1664
ag1515
ag4087
ag4181
ag1310
ag1415
ag4426
ag116
ag215
ag3453
ag2435
ag1261
ag2886
ag2706
ag2679
ag3254
ag1025
ag408
ag1557
ag3083
ag1551
ag1712
ag3445
ag2543
ag1867
ag772
ag1627
ag1378
ag1362
ag1459
ag1266
ag1683
ag860
ag120
ag205
ag2513
ag4014
ag1387
ag394
ag2269
ag1085
ag654
ag728
ag3115
ag2731
ag1503
ag3422
ag4062
ag1919
ag3111
ag2390
ag752
ag182
ag3520
ag971
ag3628
ag3136
ag4353
ag1067
ag2221
ag4421
ag1603
ag4293
ag810
ag645
ag4337
ag3068
ag4418
ag1250
ag48
ag817
ag2938
ag2603
ag2808
aS'n'
aS'c'
ag2080
ag1408
ag928
ag1923
ag1560
ag2304
ag924
ag3795
ag282
ag3205
ag941
ag3630
ag1482
ag1443
ag508
ag667
ag707
ag2398
ag1856
ag4586
ag4552
ag1466
ag1386
ag3311
ag243
ag1384
ag3613
ag3153
ag3035
ag307
ag2648
ag3317
ag193
ag1647
ag1956
ag2590
ag2917
ag2146
ag3948
ag2077
ag3352
ag1326
ag2562
ag2275
ag35
ag2277
ag47
ag3007
ag2531
ag4430
ag867
ag2643
ag208
ag3543
ag3772
ag2823
ag783
ag2769
ag937
ag788
ag4548
ag1059
ag4105
ag938
ag3910
ag3026
ag3421
ag577
ag4254
ag4262
ag3099
ag987
ag203
ag1383
ag3235
ag4374
ag3276
ag3490
ag2443
ag646
ag401
ag951
ag2130
ag123
ag832
ag125
ag3806
ag1147
ag2848
ag1275
ag580
ag1930
ag1748
ag2953
ag732
ag110
ag3485
ag2582
ag1448
ag3167
ag2754
ag1527
ag2977
ag135
ag3912
ag1581
ag1901
ag2159
ag4251
ag1200
ag3838
ag1530
ag1543
ag2904
ag2900
ag357
ag658
ag3105
ag1493
ag946
ag3203
ag1573
ag2723
ag3089
ag1548
ag1064
ag298
ag3911
ag1349
ag2021
ag2517
ag3349
ag2353
ag1247
ag2354
ag1356
ag4286
ag3262
ag662
ag1898
ag3643
ag578
ag3788
ag2440
ag4409
ag807
ag1115
ag4152
ag4212
ag1921
ag988
ag1501
ag1758
ag3159
ag2625
ag194
ag3804
ag2463
ag1666
ag4094
ag4375
ag4041
ag3420
ag2458
ag2668
ag930
ag911
ag1586
ag4257
ag2803
ag2897
ag1292
ag4333
ag1055
ag4145
ag2381
ag4422
ag1684
ag635
ag4517
ag1076
ag4074
ag699
ag2526
ag604
ag1780
ag295
ag785
ag4125
ag1083
ag3504
ag3358
ag204
ag624
ag3473
ag2280
ag4465
ag3749
ag3768
ag3864
ag2955
ag881
ag3295
ag3570
ag40
ag3985
ag2447
ag1505
ag2660
ag4452
ag1227
ag4324
ag2160
ag2444
ag1653
ag555
ag865
ag2776
ag2155
ag2262
ag2064
ag4032
ag1363
ag1142
ag2861
ag3171
ag4528
ag2281
ag3378
ag3152
ag168
ag4536
ag939
ag2747
ag3655
ag550
ag1017
ag2970
ag2125
ag3703
ag68
ag3495
ag2921
ag4367
ag2043
ag2613
ag4189
ag2265
ag4542
ag2560
ag3001
ag1233
ag3282
ag1099
ag1420
ag3848
ag1020
ag3833
ag4589
ag3556
ag3984
ag3859
ag1136
ag603
ag1585
ag3318
ag4482
ag4547
ag1354
ag349
ag1948
ag3542
ag1435
ag3866
ag3506
ag2641
ag2057
ag2604
ag1164
ag993
ag3417
ag1412
ag3241
ag2913
ag1274
ag3306
ag2865
ag261
ag460
ag4141
ag1280
ag1993
ag2602
ag2487
ag1483
ag1558
ag893
ag4389
ag1479
ag2822
ag1876
ag1472
ag569
ag3479
ag4507
ag1486
ag1434
ag2994
ag2030
ag3888
ag2735
ag2396
ag1728
ag749
ag2978
ag1732
ag368
ag2135
ag3147
ag1610
ag1561
ag1516
ag855
ag3979
ag453
ag3116
ag1566
ag627
ag2943
ag2065
ag3825
ag799
ag3777
ag3765
ag1436
ag4049
ag3706
ag3830
ag2290
ag2738
ag2451
ag2654
ag2097
ag1613
ag3284
ag1988
ag3028
ag1124
ag2003
ag1991
ag1120
ag3754
ag3478
ag3696
ag348
ag1163
ag2326
ag3260
ag1837
ag2620
ag4355
ag2940
ag1012
ag3796
ag3667
ag306
ag1509
ag3569
ag1102
ag2561
ag3685
ag177
ag2334
ag2042
ag2520
ag2762
ag3527
ag443
ag2255
ag4043
ag4000
ag1406
ag3924
ag875
ag3365
ag1619
ag258
ag670
ag790
ag334
ag1207
ag1082
ag3843
ag4113
ag2973
ag3709
ag3033
ag1464
ag689
ag680
ag1812
ag456
ag4195
ag2854
ag4592
ag1651
ag3108
ag3492
ag1779
ag3402
ag3819
ag4059
ag2939
ag1284
ag4320
ag4557
ag2433
ag852
ag2880
ag778
ag3956
ag2839
ag1944
ag212
ag2752
ag358
ag2849
ag1756
ag3430
ag3835
ag3165
ag64
ag4001
ag4266
ag737
ag4414
ag4018
ag502
ag4526
ag4356
ag1134
ag2344
ag373
ag544
ag1424
ag1533
ag2771
ag640
ag3123
ag4082
ag3081
ag2465
ag3741
ag923
ag556
ag725
ag1096
ag642
ag4219
ag3062
ag3031
ag3692
ag593
ag3657
ag4472
ag4441
ag1339
ag216
ag4149
ag4318
ag2756
ag3503
ag1219
ag4097
ag1845
ag3534
ag114
ag819
ag2495
ag4015
ag1320
ag1685
ag2998
ag1715
ag1577
ag2139
ag840
ag3383
ag4116
ag514
ag147
ag2578
ag1774
ag3638
ag2744
ag2162
ag565
ag2655
ag3606
ag2705
ag117
ag2378
ag69
ag4157
ag1360
ag4399
ag4173
ag4227
ag3807
ag1717
ag3468
ag3407
ag3249
ag4382
ag3137
ag4185
ag2638
ag4446
ag1886
ag445
ag43
ag2820
ag2875
ag1799
ag950
ag3988
ag4040
ag431
ag1929
ag1563
ag1957
ag3735
ag3889
ag211
ag3327
ag3085
ag2850
ag798
ag4530
ag1735
ag3565
ag1941
ag793
ag1844
ag3743
ag3182
ag4188
ag734
ag252
ag2919
ag4026
ag2214
ag1382
ag632
ag1954
ag4462
ag2845
ag802
ag143
ag2231
ag3069
ag1029
ag3871
ag738
ag558
ag2302
ag4078
ag406
ag1942
ag914
ag4226
ag2932
ag1300
ag1617
ag3474
ag1303
ag1293
ag706
ag1470
ag2282
ag1706
ag3601
ag3652
ag834
ag1281
ag2867
ag3817
ag3759
ag3634
ag3019
ag4407
ag3942
ag3661
ag3309
ag878
ag389
ag2729
ag4127
ag3950
ag248
ag233
ag3752
ag1430
ag4281
ag1211
ag4369
ag3369
ag4004
ag2438
ag2937
ag1655
ag1480
ag3972
ag3016
ag780
ag796
ag402
ag3434
ag3783
ag665
ag288
ag1138
ag3439
ag4069
ag1881
ag2115
ag1994
ag4502
ag1642
ag1974
ag4358
ag4574
ag2618
ag2128
ag178
ag2244
ag591
ag3873
ag3225
ag3469
ag1532
ag2413
ag3757
ag245
ag3109
ag2500
ag995
ag499
ag3622
ag3385
ag3614
ag3059
ag999
ag3475
ag4011
ag475
ag1634
ag2309
ag4206
ag2102
ag1032
ag2121
ag426
ag1601
ag4279
ag4384
ag289
ag2755
ag1175
ag4541
ag4522
ag3904
ag1674
ag3436
ag4312
ag3134
ag113
ag339
ag1198
ag4209
ag2693
ag3908
ag2357
ag2506
ag2427
ag2672
ag3963
ag3855
ag1226
ag4343
ag3307
ag264
ag1440
ag2724
ag4395
ag3200
ag1341
ag2384
ag2197
ag417
ag4272
ag1236
ag1992
ag3122
ag3811
ag4493
ag4068
ag305
ag2773
ag1860
ag1675
ag2417
ag2888
aS'g'
ag633
ag1368
ag3794
ag1153
ag1195
ag3183
ag3482
ag3389
ag119
ag2429
ag2453
ag3199
ag136
ag1967
ag1189
ag2409
ag189
ag3964
ag2199
ag283
ag4577
ag3509
ag3766
ag4329
ag3494
aS'j'
ag977
ag551
ag2142
ag73
ag634
ag1979
ag2984
ag1301
ag3390
ag2002
ag3579
ag2565
ag3651
ag784
ag888
ag4067
ag2122
ag3156
ag542
ag4077
ag1397
ag3797
ag3678
ag1447
ag2941
ag3278
ag652
ag2209
ag3253
ag396
ag3995
ag739
ag4549
ag1295
ag3746
ag606
ag58
ag493
ag1194
ag560
ag4276
ag2507
ag3923
ag4469
ag326
ag127
ag4245
ag4285
ag3539
ag2684
ag386
ag4362
ag1637
ag4466
ag862
ag338
ag4470
ag1376
ag112
ag3432
ag4415
ag2529
ag2541
ag1369
ag405
ag3271
ag3268
ag2814
ag1853
ag206
ag1820
ag3921
ag130
ag2670
ag3266
ag2694
ag23
ag1390
ag595
ag3607
ag2047
ag2504
ag3140
ag244
ag611
ag2685
ag1854
ag450
ag3663
ag3987
ag837
ag539
ag79
ag1103
ag2644
ag3044
ag1559
ag463
ag2117
ag1053
ag1140
ag1630
ag4402
ag1981
ag3593
ag2051
ag970
ag4459
ag3587
ag4247
ag1474
ag1177
ag2300
ag4363
ag4224
ag4485
ag2833
ag509
ag2777
ag1909
ag685
ag2291
ag4042
ag779
ag641
ag3727
ag3883
ag2345
ag1328
ag4133
ag3815
ag1749
ag2905
ag4029
ag2766
ag340
ag2753
ag479
ag1031
ag3960
ag1106
ag3207
ag4250
ag3786
ag3784
ag2254
ag3842
ag186
ag929
ag1241
ag3267
ag2922
ag4451
ag2583
ag3800
ag2315
ag1172
ag4352
ag903
ag4205
ag1739
ag4119
ag2259
ag2915
ag2228
ag3296
ag2349
ag300
ag344
ag2425
ag1133
ag1421
ag3884
ag571
ag2144
ag259
ag3945
ag3303
ag1278
ag2152
ag2815
ag2770
ag754
ag3437
ag4408
ag3252
ag1118
ag2461
ag4334
ag1417
ag816
ag2198
ag4497
ag4131
ag2322
ag3632
ag528
ag1042
ag842
ag661
ag2589
ag336
ag1795
ag213
ag4475
ag1583
ag2503
ag4570
ag3302
ag1256
ag109
ag1079
ag485
ag2586
ag3674
ag2645
ag1255
ag1351
ag1508
ag2460
ag587
ag682
ag1218
ag2163
ag2491
ag3720
ag2325
ag891
ag3567
ag3764
ag2786
ag1357
ag1379
ag3688
ag30
ag342
ag1168
ag1306
ag735
ag2910
ag3546
ag4583
ag2681
ag1999
ag3748
ag2510
ag3077
ag2714
ag2308
ag251
ag4054
ag3364
ag1179
ag4564
ag2750
ag2516
ag540
ag2813
ag582
ag165
ag4490
ag3669
ag1407
ag2478
ag3090
ag1833
ag1394
ag496
ag1260
ag4468
ag1883
ag774
ag4370
ag3616
ag2321
ag3211
ag328
ag4096
ag1465
ag461
ag1817
ag1267
ag3826
ag3470
ag2709
ag4246
ag4380
ag1978
ag1098
ag3489
ag643
ag140
ag1485
ag1925
ag2289
ag1148
ag3824
ag66
ag3172
ag1571
ag1703
ag4002
ag3443
ag1223
ag1620
ag4098
ag1021
ag2758
ag1677
ag4199
ag3973
ag947
ag4511
ag767
ag2533
ag1556
ag2903
ag1815
ag2335
ag1747
ag1478
ag3513
ag2140
ag1097
ag3839
ag1342
ag2581
ag1931
ag1626
ag3315
ag3639
ag3100
ag3900
ag293
ag598
ag3878
ag2992
ag529
ag4129
ag1252
ag2667
ag2866
ag694
ag1165
ag2901
ag1639
ag1777
ag1645
ag4520
ag2073
ag1584
ag892
ag2393
ag4471
ag4481
ag1958
ag3375
ag1366
ag131
ag3862
ag2835
ag1953
ag886
ag1936
ag432
ag2846
ag4525
ag277
ag3780
ag2871
ag4230
ag1068
ag3072
ag2630
ag3335
ag1063
ag1816
ag2995
ag4425
ag3353
ag2664
ag284
ag4155
ag3411
ag1714
ag763
ag4378
ag2149
ag4115
ag4150
ag3332
ag501
ag1528
ag4234
ag3552
ag3654
ag3566
ag2869
ag2894
ag980
ag1305
ag3814
ag1810
ag2579
ag1782
ag2794
ag25
ag4033
ag2819
ag2408
ag2916
ag1920
ag2154
ag2950
ag3312
ag4123
ag1791
ag2375
ag410
ag2805
ag1767
ag3505
ag2411
ag1206
ag1253
ag1818
ag538
ag3379
ag2874
ag3774
ag4193
ag861
ag311
ag4568
ag3374
ag608
ag2459
ag3048
ag775
ag2285
ag4151
ag2911
ag3025
ag3836
ag2721
ag3396
ag3460
ag4288
ag2387
ag3481
ag412
ag1094
ag3753
ag4003
ag4585
ag3300
ag4169
ag4573
ag3056
ag962
ag2020
ag2415
ag541
ag820
ag2598
ag3210
ag564
ag122
ag2011
ag1540
ag1307
ag1744
ag3635
ag3680
ag2686
ag1987
ag2712
ag2018
ag795
ag3179
ag97
ag2576
ag1045
ag4305
ag3144
ag4055
ag3054
ag2423
ag126
ag1698
ag3204
ag853
ag3461
ag2764
ag341
ag3515
ag4543
ag4581
ag3925
ag447
ag1924
ag3322
ag2134
ag3331
ag2208
ag2951
ag3392
ag3870
ag4235
ag4518
ag1589
ag3257
ag2690
ag3697
ag3841
ag2131
ag1846
ag2401
ag2831
ag370
ag4107
ag534
ag3959
ag470
ag1287
ag736
ag1239
ag904
ag1419
ag2428
ag1778
ag1066
ag1731
ag169
ag1061
ag4576
ag2966
ag3583
ag1538
ag600
ag1283
ag234
ag955
ag2359
ag3110
ag4085
ag3408
ag4156
ag1553
ag2252
ag3186
ag1963
ag1496
ag3909
ag446
ag3255
ag4220
ag3053
ag2467
ag553
ag2136
ag2355
ag2041
ag1989
ag4265
ag1797
ag1337
ag2059
ag1370
ag3228
ag317
ag1606
ag2961
ag62
ag3648
ag1230
ag3511
ag3851
ag2028
ag3512
ag1971
ag1113
ag1131
ag2332
ag195
ag1910
ag2012
ag343
ag2569
ag584
ag3384
ag3631
ag2362
ag3610
ag1214
ag3615
ag200
ag4464
ag621
ag3024
ag3095
ag1101
ag3834
ag2652
ag966
ag3528
ag4128
ag2314
ag547
ag3524
ag545
ag854
ag3761
ag897
ag3939
ag677
ag2829
ag2588
ag2195
ag4398
ag1790
ag3334
ag518
ag3263
ag1396
ag2957
ag1117
ag4455
ag2246
ag4009
ag1251
ag3847
ag171
ag1840
ag3831
ag37
ag1656
ag3695
ag998
ag2283
ag4183
ag2403
ag2512
ag4171
ag3185
ag1602
ag4309
ag4161
ag2395
ag221
ag2061
ag3724
ag294
ag1578
ag4383
ag433
ag4503
ag2212
ag3127
ag1413
ag1997
ag4480
ag1248
ag2757
ag2522
ag1934
ag1205
ag2267
ag2898
ag4187
ag2052
ag1162
ag3868
ag3968
ag3084
ag1593
ag2431
ag3559
ag3063
ag723
ag3013
ag2296
ag4458
ag491
ag3096
ag2595
ag4360
ag4217
ag3966
ag4373
ag2298
ag4366
ag3289
ag181
ag3954
ag3280
ag2534
ag1139
ag2523
ag3350
ag1191
ag3637
ag4225
ag1441
ag536
ag1771
ag649
ag1638
ag1385
ag4512
ag4372
ag3145
ag2778
ag920
ag2470
ag4354
ag1521
ag149
ag2143
ag2711
ag994
ag1232
ag1469
ag925
ag4136
ag1296
ag4302
ag1652
ag1093
ag2544
ag3236
ag1154
ag3454
ag1836
ag990
ag705
ag831
ag3022
ag2791
ag3041
ag3154
ag4091
ag1344
ag953
ag2527
ag176
ag2184
ag1272
ag505
ag2147
ag1753
ag1204
ag3119
ag2658
ag86
ag4191
ag746
ag4393
ag4515
ag521
ag1752
ag263
ag3957
ag1126
ag3525
ag1884
ag2912
ag1489
ag3366
ag3897
ag543
ag4381
ag1784
ag2479
ag2001
ag1132
ag2091
ag260
ag976
ag3138
ag4264
ag1238
ag388
ag532
ag490
ag2445
ag329
ag3563
ag4299
ag2036
ag991
ag375
ag4587
ag2180
ag4386
ag3230
ag1906
ag1185
ag3340
ag2637
ag3008
ag3038
ag586
ag965
ag1073
ag639
ag416
ag801
ag2540
ag175
ag700
ag3742
ag150
ag4537
ag3500
ag845
ag2004
ag2580
ag1075
ag4253
ag2287
ag2628
ag2063
ag56
ag101
ag2101
ag2330
ag4411
ag2341
ag2918
ag1291
ag3114
ag1228
ag1286
ag2592
ag4439
ag2360
ag3867
ag4058
ag2657
ag4287
ag537
ag1612
ag2567
ag671
ag2183
ag504
ag625
ag629
ag44
ag1591
ag2272
ag3564
ag75
ag32
ag1090
ag3471
ag1873
ag492
ag2192
ag3224
ag1229
ag3673
ag3767
ag322
ag2158
ag138
ag3380
ag3571
ag4488
ag1802
ag384
ag1192
ag3117
ag454
ag2358
ag4294
ag676
ag909
ag1374
ag3338
ag2253
ag2216
ag3519
ag4056
ag769
ag1504
ag702
ag4301
ag2800
ag520
ag1107
ag786
ag190
ag61
ag1080
ag836
ag4474
ag3405
ag1345
ag503
ag2892
ag1367
ag26
ag196
ag1450
ag4588
ag1824
ag1495
ag3188
ag495
ag1224
ag2856
ag2292
ag863
ag1346
ag2361
ag1100
ag2373
ag3686
ag4034
ag3293
ag3146
ag2113
ag2107
ag3733
ag3462
ag2176
ag2338
ag3247
ag3518
ag3157
ag2704
ag3011
ag4535
ag1004
ag1900
ag1388
ag935
ag3679
ag420
ag3087
ag2710
ag57
ag1497
ag3465
ag3880
ag3580
ag2190
ag4359
ag2555
ag249
ag4231
ag1035
ag4172
ag2364
ag715
ag2954
ag3750
ag1896
ag2489
ag1644
ag268
ag2713
ag782
ag3728
ag2787
ag434
ag1629
ag1056
ag87
ag2734
ag1043
ag740
ag202
ag2682
ag1088
ag3547
ag281
ag978
ag1575
ag1270
ag3029
ag838
ag2369
ag3675
ag2434
ag1110
ag3773
ag2294
ag1221
ag954
ag2053
ag2554
ag1798
ag3133
ag441
ag385
ag895
ag3191
ag3624
ag354
ag630
ag4057
ag1775
ag2975
aS'0'
ag4162
ag1838
ag1880
ag3550
ag2498
ag3423
ag720
ag1245
ag2279
ag1868
ag1249
ag3549
ag3778
ag2636
ag4326
ag377
ag3361
ag1210
ag594
ag4218
ag2577
ag3555
ag1822
ag1202
ag2075
ag2883
ag3782
ag3558
ag1065
ag964
ag452
ag2952
ag3080
ag1803
ag2480
ag968
ag1766
ag2607
ag2367
ag2748
ag4021
ag3455
ag4137
ag1688
ag3368
ag4238
ag409
ag742
ag4423
ag2167
ag3502
ag3239
ag2485
ag2071
ag4027
ag1141
ag1874
ag3860
ag601
ag2877
ag1427
ag618
ag3820
ag2896
ag355
ag592
ag2802
ag967
ag511
ag3498
ag4175
ag1951
ag1928
ag2049
ag3641
ag4539
ag986
ag898
ag2110
ag696
ag2078
ag4315
ag4449
ag257
ag4304
ag1864
ag3342
ag1885
ag4300
ag2471
ag3314
ag4139
ag628
ag880
ag449
ag1915
ag1922
ag3881
ag984
ag2066
ag2545
ag275
ag2151
ag844
ag1907
ag4221
ag2844
ag823
ag104
ag1203
ag4571
ag2196
ag2085
ag3404
ag3258
ag3949
ag179
ag858
ag3377
ag2969
ag2759
ag4453
ag4134
ag124
ag3738
ag4331
ag3905
ag3943
ag1273
ag567
ag2629
ag3486
ag2698
ag2419
ag3313
ag3946
ag4228
ag498
ag4211
ag1451
ag3962
ag320
ag2987
ag2414
ag465
ag1943
ag71
ag3316
ag1092
ag2469
ag1231
ag2466
ag2168
ag2324
ag4559
ag347
ag3726
ag236
ag414
ag2763
ag3161
ag2464
ag230
ag1277
ag4168
ag3073
ag1199
ag708
ag132
ag3120
ag3934
ag4200
ag4434
ag4332
ag1952
ag4244
ag1070
ag2852
ag3589
ag1216
ag562
ag337
ag253
ag4491
ag1858
ag1568
ag3103
ag19
ag756
ag4416
ag4400
ag1859
ag413
ag4010
ag3937
ag3003
ag4232
ag1114
ag1582
ag3128
ag921
ag3508
ag4039
ag3251
ag3193
ag1500
ag1959
ag2790
ag2895
ag1069
ag1911
ag4008
ag664
ag1691
ag3785
ag1865
ag4237
ag1908
ag2205
ag1373
ag3467
ag512
ag3918
ag4307
ag2605
ag926
ag1399
ag1692
ag3681
ag905
ag1519
ag1324
ag1429
ag3656
ag3792
ag3612
ag3708
ag1972
ag4045
ag2170
ag2276
ag1825
ag2116
ag2830
aS'y'
ag992
ag4350
ag455
ag3717
ag4239
ag1331
ag612
ag3705
ag719
ag1788
ag93
ag2105
ag4582
ag308
ag3222
ag3330
ag3484
ag811
ag1764
ag975
ag458
ag103
ag4584
ag1137
ag3009
ag4412
ag2726
ag3270
ag2497
ag2363
ag1431
ag2692
ag94
ag1244
ag3285
ag3629
ag1188
ag1254
ag3382
ag1596
ag2343
ag3647
ag3101
ag3065
ag1016
ag107
ag3275
ag3321
ag741
ag650
ag4046
ag4457
ag2749
ag418
ag3388
ag3310
ag1403
ag4580
ag1507
ag3400
ag1878
ag2991
ag828
ag197
ag3345
ag2634
ag1215
ag3953
ag4376
ag2650
ag2179
ag3665
ag899
ag1740
ag4392
ag3121
ag3181
ag2094
ag4385
ag436
ag776
ag2559
ag173
ag730
ag2370
ag1574
ag2310
ag1213
ag421
ag4572
ag4513
ag2238
ag391
ag2456
ag222
ag4031
ag2568
ag3124
ag1757
ag4499
ag1428
ag1648
ag2406
ag1335
ag3998
ag1535
ag2945
ag2826
ag3633
ag3501
ag3287
ag2111
ag3299
ag2120
ag3877
ag4060
ag731
ag1201
ag1622
ag1257
ag2376
ag3221
ag2689
ag164
ag2783
ag154
ag2674
ag435
ag907
ag2832
ag3234
ag870
ag2250
ag2699
ag4454
ag2211
ag2351
ag4437
ag4258
ag3265
ag2989
ag1269
ag207
ag63
ag4135
ag1984
ag84
ag2818
ag1537
ag4495
ag2946
ag486
ag3537
ag3920
ag4114
ag4328
ag554
ag3574
ag1787
ag2060
ag1314
ag1781
ag3092
ag3052
ag3541
ag2171
ag3409
ag791
ag4174
ag1709
ag866
ag1525
ag1759
ag2798
ag3644
ag4240
ag1222
ag660
ag4061
ag3790
ag3990
ag2809
ag3577
ag4023
ag3452
ag2100
ag1669
ag3458
ag4109
ag2722
ag381
ag4534
ag932
ag818
ag223
ag770
ag1081
ag2836
ag3130
ag1044
ag1730
ag4303
ag3514
ag2301
ag374
ag983
ag3197
ag1405
ag864
ag3896
ag1861
ag883
ag472
ag2635
ag4335
aS'h'
ag4419
ag3256
ag1962
ag2882
ag2788
ag2936
ag4071
ag2229
ag2515
ag1135
ag4523
ag4575
ag3125
ag2574
ag4361
ag1762
ag4321
ag4345
ag2976
ag726
ag2305
ag2739
ag3215
ag3323
ag2828
ag4311
ag1433
ag733
ag1364
ag701
ag3844
ag3243
ag1945
ag3930
ag4163
ag1343
ag2194
ag488
ag3745
ag1089
ag390
ag917
ag3126
ag1352
ag1333
ag3670
ag4429
ag90
ag240
ag3982
ag3177
ag3769
ag3132
ag3286
ag1019
ag1174
ag4207
ag2069
ag2647
ag4346
ag4080
ag1391
ag2323
ag1037
ag235
ag4579
ag2009
ag3294
ag4142
ag361
ag2680
ag3704
ag1176
ag2274
ag4111
ag1402
ag3480
ag3668
ag4364
ag1311
ag868
ag4432
ag913
ag2109
ag3357
ag2575
ag2799
ag1190
ag49
ag1309
ag3584
ag3496
ag2881
ag2587
ag2038
ag4143
ag2524
ag1895
ag2316
ag3690
ag3893
ag2418
ag148
ag3015
ag3429
ag2241
ag3928
ag3413
ag672
ag4044
ag2838
ag4313
ag1702
ag2454
ag4081
ag1597
ag1271
ag1439
ag2383
ag3747
ag2426
ag3700
ag2379
ag3931
ag3194
ag1348
ag2318
ag2062
ag28
ag4179
ag3106
ag3736
ag1682
ag1389
ag2239
ag3915
ag3050
ag2299
ag296
ag3337
ag3562
ag1494
ag3849
ag98
ag3597
ag1298
ag4022
ag3568
ag1808
ag4017
ag4089
ag4167
ag2890
ag323
ag2536
ag3398
ag77
ag2096
ag1047
ag3180
ag1180
ag1828
ag360
ag185
ag3004
ag4387
ag1839
ag1476
ag1444
ag3691
ag4118
ag777
ag3160
ag180
ag1487
ag2640
ag3993
ag3548
ag424
ag710
ag3713
ag2767
ag4190
ag825
ag1733
ag3983
ag566
ag3526
ag487
ag2585
ag159
ag60
ag1834
ag2570
ag1259
ag3516
ag3694
ag3818
ag3801
ag803
ag4478
ag2056
ag2203
ag568
ag1057
ag4341
ag572
ag2145
ag3444
ag3926
ag4255
ag2782
ag1985
ag3996
ag2025
ag3288
ag2730
ag3142
ag1196
ag2402
ag382
ag1122
ag2368
ag3051
ag3530
ag3061
ag1158
ag4065
ag4527
ag663
ag3448
ag3175
ag2380
ag1628
ag2193
ag395
ag1913
ag2486
ag1041
ag1539
ag2029
ag1034
ag3425
ag2741
ag4101
ag570
ag2965
ag4159
ag2688
ag2725
ag3046
ag3427
ag350
ag3725
ag690
ag3301
ag1375
ag3572
ag363
ag2182
ag789
ag3424
ag422
ag4121
ag3381
ag890
ag3463
ag2857
ag3916
ag3372
ag3863
ag3865
ag843
ag4298
ag2374
ag4291
ag599
ag2816
ag617
ag4476
ag473
ag3393
ag2476
ag3892
ag2884
ag771
ag4076
ag3020
ag2983
ag352
ag3595
ag3821
ag3151
ag681
ag163
ag3131
ag4444
ag246
ag2039
ag2223
ag519
ag2319
ag3341
ag3320
ag4569
ag331
ag3872
ag3592
ag2509
ag2258
ag3664
ag3886
ag619
ag758
ag3899
ag743
ag3150
ag4153
ag3799
ag3273
ag1576
ag2016
ag3208
ag3169
ag4037
ag3040
ag2089
ag4170
ag2860
ag4545
ag1022
ag2311
ag3623
ag226
ag3456
ag3391
ag2553
ag3832
ag4178
ag3837
ag1770
ag1449
ag3671
ag3189
ag481
ag1827
ag3184
ag2909
ag2074
ag4108
ag2492
ag1338
ag2518
ag1445
ag1149
ag2048
ag605
ag399
ag2671
ag1490
ag2013
ag590
ag2601
ag166
ag3201
ag3935
ag1918
ag943
ag620
ag346
ag1262
ag2474
ag4342
ag3223
ag1460
ag172
ag3856
ag1579
ag2082
ag3018
ag2678
ag153
ag1477
ag703
ag1130
ag1108
ag1027
ag376
ag1372
ag3163
ag1319
ag1624
ag3813
ag2981
ag4236
ag3895
ag133
ag3036
ag674
ag4319
ag4405
ag3994
ag4177
ag2490
ag585
ag2804
ag2040
ag2240
ag3507
ag2251
ag1710
ag3386
ag4086
ag794
ag2796
ag849
ag2202
ag3544
ag3283
ag2963
ag3071
ag2087
ag3891
ag1312
ag2564
ag1738
ag2661
ag2646
ag3932
ag4591
ag522
ag2931
ag3168
ag1336
ag4261
ag805
ag1807
ag1811
ag480
ag4100
ag2164
ag4260
ag430
ag1599
ag1605
ag3023
ag3933
ag2732
ag2150
ag3715
ag3149
ag3274
ag751
ag2189
ag2707
ag3533
ag21
ag1146
ag265
ag1704
ag1862
ag2086
ag3164
ag1851
ag3662
ag4103
ag4252
ag2473
ag1517
ag76
ag2842
ag4201
ag1980
ag1870
ag1008
ag856
ag4248
ag1160
ag2737
ag4273
ag1970
ag4435
ag269
ag2088
ag3885
ag3487
ag2468
ag1835
ag1831
ag3822
ag4144
ag1772
ag3394
ag3758
ag1454
ag2563
ag3974
ag3373
ag3347
ag3854
ag3227
ag4533
ag3129
ag2295
ag1446
ag3246
ag38
ag2843
ag3532
ag686
ag477
ag1038
ag1832
ag1145
ag1468
ag1879
ag1212
ag4484
ag1193
ag3141
ag2988
ag411
ag3913
ag1990
ag2908
ag3645
ag2502
ag2218
ag1471
ag4404
ag51
ag2204
ag596
ag3431
ag659
ag3045
ag2914
ag3756
ag2626
ag1377
ag1632
ag3401
ag3585
ag2812
ag3039
ag4410
ag4006
ag2907
ag3699
ag3049
ag1742
ag2123
ag4263
ag3395
ag3732
ag3166
ag3816
ag3220
ag2795
ag1804
ag4489
ag2187
ag2810
ag356
ag4203
ag3535
ag3707
ag3626
ag2979
ag1187
ag2572
ag271
ag4292
ag989
ag1086
ag1289
ag1554
ag1392
ag2394
ag274
ag4192
ag2472
ag3491
ag1726
ag3861
ag2320
ag1672
ag2779
ag4531
ag3879
ag3711
ag1513
ag4268
ag3472
ag3414
ag4377
ag821
ag2521
ag1488
ag2960
ag2247
ag2949
ag4243
ag900
ag918
ag2377
ag3989
ag1592
ag2068
ag201
ag1297
ag2225
ag2347
ag158
ag822
ag745
ag4016
ag3846
ag2935
ag1116
ag3553
ag2639
ag314
ag2548
ag217
ag1313
ag533
ag2746
ag714
ag2133
ag2099
ag1982
ag242
ag2072
ag2127
ag4269
ag2761
ag1724
ag3829
ag4504
ag2226
ag1365
ag692
ag24
ag256
ag1438
ag4394
ag4396
ag3017
ag3212
ag3603
ag2968
ag2649
ag3977
ag464
ag4282
ag3336
ag3672
ag1631
ag3941
ag1028
ag2339
ag718
ag666
ag1026
ag4102
ag894
ag3947
ag92
ag2093
ag1562
aS'e'
ag2328
ag1473
ag2807
ag2617
ag2033
ag3588
ag2392
ag404
ag4204
ag2841
ag3112
ag985
ag3605
ag144
ag1877
ag3195
ag2736
ag4122
ag3740
ag3693
ag4336
ag262
ag425
ag91
ag3226
ag3464
ag1330
ag2651
ag4267
ag1785
ag4164
ag2365
ag2622
ag4368
ag4165
ag3216
ag1119
ag2702
ag3907
ag250
ag869
ag1668
ag3698
ag1325
ag1887
ag2412
ag167
ag3418
ag1123
ag4053
ag3961
ag1078
ag931
ag1197
ag2153
ag3367
ag2035
ag2656
ag2437
ag191
ag3771
ag1030
ag4567
ag597
ag3412
ag3356
ag29
ag3894
ag3170
ag549
ag1290
ag4104
ag4064
ag1549
ag1687
ag655
ag2719
ag4486
ag1006
ag2005
ag3238
ag2792
ag3499
aS'v'
ag1813
ag3005
ag1151
ag1150
ag3237
ag2933
ag2642
ag1121
ag2552
ag2557
ag2235
ag1939
ag2329
ag4413
ag287
ag2659
ag4088
ag4019
ag1393
ag651
ag1523
ag3438
ag850
ag2356
ag3718
ag2037
ag614
ag2045
ag4420
ag1852
ag1871
ag1572
ag2023
ag4198
ag2034
ag46
ag2014
ag365
ag4460
ag2230
ag1693
ag474
ag2333
ag4556
ag3981
ag2535
ag1769
ag2982
ag1819
ag3010
ag552
ag4112
ag3397
ag1074
ag1848
ag2132
ag2400
ag2728
ag1173
ag4140
ag3202
ag1095
ag1986
ag2346
ag3264
ag2958
ag2876
ag3980
ag2181
ag139
ag4214
ag3102
ag961
ag1112
ag3229
ag59
ag3775
ag489
ag3791
ag27
ag829
ag4403
ag400
ag3789
ag833
ag3576
ag3435
ag3292
ag1171
ag2508
ag4007
ag1716
ag3779
ag2774
ag507
ag2539
ag2201
ag3477
ag3992
ag2172
ag3523
ag54
ag513
ag459
ag3240
ag2493
ag506
ag2126
ag2206
ag3812
ag3174
ag371
ag1522
ag936
ag290
ag1359
ag4296
ag330
ag2022
ag1711
ag2745
ag2727
asbsS'max_document_length'
p4597
I108
sS'_tokenizer'
p4598
ctensorflow.contrib.learn.python.learn.preprocessing.text
tokenizer
p4599
sS'min_frequency'
p4600
I0
sb.